(lp0
(lp1
(lp2
F0.3471389436682084
aF0.7145416101596346
aF1.0019104963254974
aF1.1565843580409894
aF1.3676039316920112
aF1.5468584510064174
aF1.7353172707551958
aF1.8710209180210935
aF2.07582760857316
aF2.3142513036055643
aF2.4591722092403527
aF2.660266043289331
aF3.9615266216014224
aF4.3312650079777635
aF4.679360684892112
aF5.828765099863261
aF6.1294351388225055
aF6.409573030370184
aF6.664026761764328
aF6.914607083409769
aF7.504730224625588
aF7.730147534976983
aF7.9203257335978305
aF8.176142367003353
aF8.42863495685594
aF8.612981876620996
aF8.786709821967204
aF8.990069723600671
aF9.242940078987196
aF9.428252545528462
aF9.576515883888277
aF9.758809985397281
aF9.907554320070329
aF10.129658590923983
aF10.259344366147564
aF10.433496244267277
aF10.54393728938656
aF10.695433403991228
aF10.802574888343022
aF10.868707367874086
aF11.075647133362507
aF11.143083136838099
aF11.188707581523461
aF11.242098959328992
aF11.2503431038814
aF11.247100250564268
aF11.231550172072545
aF11.206595098136816
aF11.169160228463413
aF11.142456199118545
aF11.090774702645048
aF11.033892638238685
aF10.963744258598057
aF10.897465213940972
aF10.795535892926466
aF10.733178818023019
aF10.604510355408529
aF10.459422309780164
aF10.323042836606971
aF10.22227622835827
aF9.899895450018874
aF9.751374400497076
aF9.64481733766449
aF9.542869463551174
aF9.35947399960921
aF9.240614508527369
aF9.107750834898935
aF8.881470601132053
aF8.717396551848994
aF8.599536978527489
aF8.357737793554
aF8.081637314553262
aF7.8909315330264835
aF7.704536544348516
aF7.45543459422926
aF7.292210198098333
aF7.11519527967942
aF6.856657789041792
aF6.656128978069612
aF6.355440046993109
aF5.744854184419604
aF5.57611523680996
aF5.251573316127774
aF4.9334261067097716
aF4.636483743955428
aF4.410212989641573
aF4.089740902996677
aF3.861766470686354
aF3.558788566625068
aF3.201108465761819
aF2.889801458978035
aF2.675583303915645
aF2.4338031542566467
aF2.118169943877801
aF1.8838777546541496
aF1.5382261505998167
aF1.2237838331991957
aF0.986927685531462
aF0.6567094903665147
aF0.29870395453722415
aF-0.5901865991909473
aF-0.8485400282606633
aF-1.0582033967103566
aF-1.4521815388212718
aF-1.8188147336059732
aF-2.0929905451183597
aF-2.350723436360491
aF-2.6049825259003723
aF-2.864810336036512
aF-3.1056644756454617
aF-3.5319143615077695
aF-3.7587370454181994
aF-4.176032921775547
aF-4.562674471183825
aF-4.890081512468712
aF-5.26167194181705
aF-5.5836498182539955
aF-6.023243889994527
aF-6.528687483956381
aF-6.833348767366579
aF-7.780526353969408
aF-8.083317728904305
aF-8.397905699316707
aF-8.890341401630826
aF-9.174563382527168
aF-9.512202449122599
aF-9.993123354473532
aF-10.31565722832139
aF-10.640404705509143
aF-11.135944169440926
aF-11.484813113337314
aF-12.012047871158702
aF-12.501682939222428
aF-12.832188285959276
aF-13.148248143683968
aF-13.581404308262364
aF-13.898052242213865
aF-14.199927080587994
aF-14.49399466494836
aF-14.935508565877
aF-15.823948211136049
aF-16.082110464066787
aF-16.53927181668138
aF-16.858687393294453
aF-17.183839874392497
aF-17.45950950751211
aF-17.9617103433314
aF-18.30155548687054
aF-18.65030572436518
aF-19.18684561524488
aF-19.49206968651977
aF-21.421690794983718
aF-21.727562924981633
aF-22.01093542750299
aF-22.367083387900387
aF-22.771649148845853
aF-23.099023537661076
aF-23.361240355671644
aF-23.793282295708906
aF-24.118930825372992
aF-24.90588815630752
aF-25.190326752381015
aF-25.707544522907945
aF-26.24569374270034
aF-26.62216279081779
aF-27.201156665766653
aF-27.58603981611721
aF-27.93999243738892
aF-28.76155331856651
aF-29.349880123233252
aF-29.766165558491217
aF-30.149522426978475
aF-30.573600985645488
aF-30.999428155912764
aF-31.375558917422026
aF-31.98120448088239
aF-32.396323709262525
aF-32.99334103124402
aF-33.36404326170104
aF-33.94298951164496
aF-34.871185606902905
aF-35.28639837997479
aF-35.88120621546144
aF-36.471915734790954
aF-37.285221338502886
aF-37.72435578699001
aF-38.38843828435696
aF-38.85192041560066
aF-39.51042558575353
aF-39.9219715916772
aF-40.3730408081547
aF-41.040368536496665
aF-41.7291167381176
aF-42.403939472844336
aF-43.067322745262885
aF-43.522581520394
aF-44.2076080850315
aF-44.631022502687614
aF-45.329541669904245
aF-47.60941094824857
aF-48.92747614024296
aF-49.56806675262688
aF-49.99871961604228
aF-50.37229555486651
aF-50.94326013799623
aF-51.49701954619222
aF-52.000009380903315
aF-52.527646814994156
aF-52.87450203269296
aF-53.351330714803105
aF-53.79619658559722
aF-54.27087859310916
aF-54.610878067798566
aF-55.00084158857331
aF-55.46378516617442
aF-55.71620984811053
aF-56.129611407272066
aF-56.562839040550166
aF-56.984241892934165
aF-57.28578391836876
aF-58.19591778567334
aF-58.650982188139444
aF-59.09299448506615
aF-59.54693298886795
aF-60.00974157766915
aF-60.48759753865038
aF-60.9312425857898
aF-61.38175459948201
aF-61.853703101405806
aF-62.322769639260926
aF-62.76766287107255
aF-63.259690967850176
aF-63.7142382873318
aF-64.17479871788035
aF-65.80931242189568
aF-66.30298138884434
aF-66.76134263757861
aF-67.26822813996161
aF-67.56672563200594
aF-68.06675546575197
aF-69.05860904712323
aF-69.55232247209359
aF-70.04044345179666
aF-70.5123590678379
aF-70.85156002255644
aF-71.35073047266606
aF-71.84737979636691
aF-72.36826874706232
aF-72.88242527318373
aF-73.50770938949005
aF-73.97612060271679
aF-74.39981519829215
aF-74.83475081074965
aF-75.26665275135647
aF-75.71927264322203
aF-76.17747885639628
aF-76.69215312117727
aF-77.1526899549853
aF-77.64372825569559
aF-78.13554328598595
aa(lp3
F1.5308531262658316
aF1.5312103213365547
aF1.5315870653150805
aF1.5321564821996945
aF1.6408966572285733
aF1.7500394053105652
aF1.8613278644555062
aF1.8628171242363245
aF2.0820727052989834
aF2.3024706967565125
aF2.521914832445297
aF2.6344995479130646
aF4.053164955022295
aF4.377960810287023
aF4.793829605060125
aF5.879396542048477
aF6.3039757172862805
aF6.525250024118173
aF6.745850278027904
aF6.96649694578725
aF7.504389199567596
aF7.834132894780386
aF7.944480008554875
aF8.25574561928361
aF8.473498144992092
aF8.69137159260628
aF8.892047578870669
aF8.998654528548128
aF9.320949712159626
aF9.521175969070715
aF9.740142607539264
aF10.058175454637276
aF10.26435445125569
aF10.445100171469
aF10.644562250534834
aF10.840229197095722
aF10.920616925527918
aF11.10787401806742
aF11.197201640411079
aF11.26161314110103
aF11.37773403861555
aF11.435941915214336
aF11.511145926175306
aF11.457535939496182
aF11.424351887070484
aF11.38531237558469
aF11.361426142154967
aF11.333512702222528
aF11.280069562640652
aF11.254800254706394
aF11.19753553765367
aF11.030972937534251
aF11.002059038103281
aF10.974474129016881
aF10.8020990581066
aF10.666072554159639
aF10.605492564511374
aF10.472064644542995
aF10.326196014303584
aF10.10195605957998
aF9.868701607922107
aF9.65418588471681
aF9.63970872383153
aF9.424592732943177
aF9.304489478364133
aF9.199065755629961
aF9.093399406984483
aF8.75591494769566
aF8.634611499837408
aF8.5296429698771
aF8.19455573652446
aF7.964514591293449
aF7.732300874860146
aF7.625597253340271
aF7.2856868271705535
aF7.164187646961314
aF6.930585721930968
aF6.586970594470031
aF6.479530650889653
aF6.122409286690069
aF5.549021107821365
aF5.3164723753509255
aF4.974875596862472
aF4.740539187746634
aF4.396958459809521
aF4.16233774845675
aF3.8172044301295607
aF3.5989882816403904
aF3.237321374417598
aF2.8931515995325032
aF2.5472364302943205
aF2.4206057446443836
aF2.2019205311924956
aF1.841263726483096
aF1.6066923937640296
aF1.2642204368381962
aF0.9219091125620417
aF0.6894625474068461
aF0.34871357987213214
aF-0.20435415122619977
aF-1.0024173758332116
aF-1.1058895768141264
aF-1.4429682367944034
aF-1.7781642009283156
aF-2.2207223878452633
aF-2.4497932201658337
aF-2.6798451479218133
aF-3.001972863712059
aF-3.2328955886304596
aF-3.574923260122837
aF-3.919017115313005
aF-4.2465875056040385
aF-4.594777210214645
aF-5.051814930021946
aF-5.401073297537921
aF-5.9657877463835085
aF-6.187871563018483
aF-6.662599497510331
aF-7.118534828818792
aF-7.445779067314455
aF-8.37096198132506
aF-8.714145397807869
aF-8.934172307036466
aF-9.403209826809293
aF-9.744306697500285
aF-10.19367709345116
aF-10.533919941542582
aF-10.858301941121224
aF-11.198338896780491
aF-11.769692587964496
aF-12.110626003777025
aF-12.561271440620057
aF-13.02980670348025
aF-13.154703267697613
aF-13.497713119889031
aF-13.858038065182974
aF-14.091579419990198
aF-14.326464359194828
aF-14.796951983509402
aF-15.140371286982996
aF-15.973321429131534
aF-16.44485269799555
aF-16.68091220386371
aF-17.02332528618007
aF-17.382649301905413
aF-17.847847311966323
aF-18.18689933944492
aF-18.648685958579236
aF-18.876240968418145
aF-19.55543144707182
aF-19.78736627899635
aF-21.448884052351545
aF-21.810642086010507
aF-22.155499831969504
aF-22.532422443830352
aF-22.76775040954664
aF-23.017967126140352
aF-23.48448944010439
aF-23.8423469848852
aF-24.075684828255543
aF-25.005928990658617
aF-25.580180249548835
aF-26.154028266186486
aF-26.62196671382119
aF-27.19761167454534
aF-27.538151244921846
aF-28.00535903063755
aF-28.580717973540757
aF-29.38803039859534
aF-29.840795338342506
aF-30.308567493471234
aF-30.652319272676237
aF-31.103784602387353
aF-31.572306765550362
aF-32.151616648143815
aF-32.49580622188856
aF-32.98163429386612
aF-33.32389356724731
aF-33.898390134982954
aF-34.25554273222821
aF-35.298453067108746
aF-35.87559743898505
aF-36.5607088764769
aF-37.13580687902939
aF-37.81864815822935
aF-38.39342011313802
aF-39.077833155233414
aF-39.764091041109396
aF-40.107804826360756
aF-40.562518058069514
aF-41.26817229646562
aF-41.95618383434676
aF-42.640578744816864
aF-43.218122899129646
aF-43.686096159905496
aF-44.371423714814526
aF-44.94787268058522
aF-45.5236192864623
aF-45.97326656531713
aF-48.48411605725067
aF-49.73939979791744
aF-50.1894082295739
aF-50.53158036273876
aF-51.10684248463369
aF-51.66383726723447
aF-52.234795169359316
aF-52.80501284667353
aF-53.03519699773539
aF-53.590534617241865
aF-54.041919087872756
aF-54.511947580127334
aF-54.85593915381947
aF-55.202050307428664
aF-55.673180156364566
aF-55.892025657880325
aF-56.25450252218184
aF-56.70849191040905
aF-57.17937304554261
aF-57.41519932341199
aF-57.867725791091196
aF-58.78873330532607
aF-59.23891661672382
aF-59.707035518119554
aF-60.17584652951955
aF-60.627759816231915
aF-61.07912931234402
aF-61.52943859887737
aF-61.996891508815196
aF-62.44675102965034
aF-62.89493717836595
aF-63.4668792979446
aF-63.915902392074365
aF-64.36710659248682
aF-64.81325055551497
aF-66.40958879207811
aF-66.86201455541455
aF-67.33232072466139
aF-67.67553871606232
aF-68.12943939496672
aF-68.70912875123317
aF-69.63229615593131
aF-70.10221684200638
aF-70.55282696379214
aF-71.12627639964792
aF-71.35613654860256
aF-71.92584089309581
aF-72.49229514995801
aF-72.95434048350677
aF-73.41341408105079
aF-73.87046119835169
aF-74.33097255487051
aF-74.66925411035594
aF-75.1321270839034
aF-75.59863650505103
aF-76.17582661513607
aF-76.64548522573249
aF-77.11687746404584
aF-77.5866926759553
aF-78.05686552990758
aF-78.52694717791498
aa(lp4
F0.009637886670405724
aF0.0373490996268067
aF0.07766135469924612
aF0.12365704529348562
aF0.22543692501024507
aF0.3641248363359553
aF0.5177673912565328
aF0.6593733382378832
aF0.8894949987208195
aF1.121405910856568
aF1.3533537800211735
aF2.527974617706306
aF3.029467135034383
aF3.373562596753381
aF4.64803595450411
aF4.957247835124625
aF5.257650334314033
aF5.528464758085389
aF5.746242059192467
aF5.968570103670843
aF6.582733143623876
aF6.821681075734209
aF7.080871576226317
aF7.341936770351637
aF7.603431506392984
aF7.847324175097139
aF8.034214047977907
aF8.252924160414265
aF8.524048727408571
aF8.744201579774575
aF8.837559477302673
aF8.923033453290328
aF9.03928371553968
aF9.136036798129238
aF9.18419010793186
aF9.261475961888145
aF9.321998090612174
aF9.36657048508433
aF9.352553591827123
aF9.330466812155603
aF9.319281770548693
aF9.33439922905696
aF9.345388893911592
aF9.343334226029476
aF9.344126285048114
aF9.34320124089977
aF9.33734212773357
aF9.328983592974161
aF9.325619743093133
aF9.322303421974597
aF9.337026146992695
aF9.339548748118272
aF9.343347063470521
aF9.346032647240428
aF9.331765338800183
aF9.321987849322035
aF9.339578448927599
aF9.315328788509554
aF9.348526326582604
aF9.460253637483525
aF9.499404584075604
aF9.425268830753623
aF9.36488760894252
aF9.339844846127608
aF9.23290895461906
aF9.167678130480455
aF9.09650030591669
aF8.98559495923349
aF8.802255530958302
aF8.662027433993682
aF8.475053965693336
aF8.334539151565764
aF8.156375475466637
aF8.01697541265227
aF7.753579320768773
aF7.609524955018717
aF7.3320178340944056
aF7.0161494507920095
aF6.8059007610172015
aF6.53247280362141
aF5.907525029580414
aF5.710000528986946
aF5.430694932669922
aF5.056346648699006
aF4.8389204645206885
aF4.609063975122073
aF4.334932515169182
aF4.097949419164844
aF3.8054822648999966
aF3.5022445628927263
aF3.176516430078835
aF2.9910187247768305
aF2.7947308360029735
aF2.497636740987971
aF2.315469295778784
aF1.9990913439987885
aF1.6448648758364623
aF1.4125098595644556
aF1.1224243575121367
aF0.6197303592484235
aF-0.04660898834801972
aF-0.2975483325379939
aF-0.609410246623445
aF-0.9659286693089237
aF-1.3208612785275777
aF-1.613851421802799
aF-1.8429704285347666
aF-2.1777782707504825
aF-2.4718349495770147
aF-2.7089502414665705
aF-3.1559926694459173
aF-3.4437354646216627
aF-3.9759849023366973
aF-4.339163401342591
aF-4.718134193226098
aF-5.262855108998628
aF-5.597859640455825
aF-6.069021345131921
aF-6.470947053323361
aF-6.917183371375524
aF-7.852626691247375
aF-8.19251751515847
aF-8.537669716168214
aF-8.97814957955145
aF-9.313433354413233
aF-9.804767373739452
aF-10.136346447539633
aF-10.512900681066727
aF-10.873929379746123
aF-11.34216477691673
aF-11.66637130642121
aF-12.146342120077787
aF-12.572835096770055
aF-12.906872638799424
aF-13.241629236587364
aF-13.633448883424014
aF-13.936972870101489
aF-14.194569414821864
aF-14.586648541534426
aF-14.818549074975845
aF-15.700887249412325
aF-16.130683675502837
aF-16.41850000738471
aF-16.684569827730908
aF-17.020947837829514
aF-17.397329315525194
aF-17.642841579142424
aF-17.994811247829155
aF-18.312255983791403
aF-18.69896591633211
aF-20.332776414165497
aF-20.700243674398305
aF-21.027362786778944
aF-21.207796127132713
aF-21.681228301811345
aF-21.870150996583913
aF-22.108674522140102
aF-22.51817996248551
aF-22.755313729723564
aF-23.102975972188776
aF-23.78140522860298
aF-24.23397233814108
aF-24.690838608403556
aF-25.056641134413525
aF-25.452245057487083
aF-25.84320869650619
aF-26.211630291872268
aF-26.757347388658648
aF-27.320217696463313
aF-27.69642059414975
aF-27.9994913601889
aF-28.33423359461539
aF-28.742464098377393
aF-29.136152315201866
aF-29.65348274137748
aF-29.966101244069566
aF-30.434127961020508
aF-30.799950796614517
aF-31.283973465501752
aF-31.608139293291668
aF-32.435291226481354
aF-32.889737209718405
aF-33.439562442142574
aF-33.95099611455749
aF-34.5001457288123
aF-34.95653685566125
aF-35.49551331555171
aF-36.059399045963104
aF-36.45536338850747
aF-36.80477510009695
aF-37.49774576936016
aF-37.98031285706683
aF-38.65717993910894
aF-39.16607852355625
aF-39.616614148251806
aF-40.16186541144011
aF-40.58081155074638
aF-41.09872243007446
aF-43.0961687243985
aF-43.63545223571132
aF-44.777281244284445
aF-45.15319919608751
aF-45.456380685128984
aF-45.992213586993905
aF-46.41611996802637
aF-46.87376071628221
aF-47.349333525864594
aF-47.56270694839874
aF-47.90916254351903
aF-48.30602948077886
aF-48.65568659104421
aF-48.83114794058452
aF-49.288862556502444
aF-49.6373772227668
aF-49.81670436556037
aF-50.24025520606267
aF-50.569169129186186
aF-50.94581988740267
aF-51.168163467816406
aF-51.536272102366084
aF-52.32377979459814
aF-52.74057345551094
aF-53.08747644195454
aF-53.52181093775286
aF-53.83246369115012
aF-54.332035836352446
aF-54.7009995217017
aF-55.1422241414777
aF-55.574529472867525
aF-55.98931941149523
aF-56.43564844082934
aF-56.92898011004997
aF-57.38462048878893
aF-59.00868594584767
aF-59.45915622689264
aF-59.84036767740143
aF-60.34168205981665
aF-60.566077155111465
aF-61.04690645974435
aF-61.534406580738455
aF-62.401218640380385
aF-62.80545848245369
aF-63.27046110326855
aF-63.68177625679354
aF-63.93238190695854
aF-64.42666003838202
aF-64.76955309541303
aF-65.2356524998626
aF-65.67877669363813
aF-66.15409217821227
aF-66.5357809460405
aF-66.92740120968068
aF-67.38099995245527
aF-67.71919353592705
aF-68.1700790352188
aF-68.57428986585921
aF-69.03265960954715
aF-69.49312199148181
aF-69.86506026250052
aF-70.28795338957141
aa(lp5
F-12.400043487548828
aF-12.430562973022461
aF-12.46878719329834
aF-12.524858474731445
aF-12.636624336242676
aF-12.766802787780762
aF-12.92392349243164
aF-13.090867042541504
aF-13.327109336853027
aF-13.537999153137207
aF-13.771965026855469
aF-15.03864574432373
aF-15.502220153808594
aF-15.848917007446289
aF-17.136241912841797
aF-17.411853790283203
aF-17.710229873657227
aF-17.955520629882812
aF-18.22230339050293
aF-18.427419662475586
aF-19.031450271606445
aF-19.30518341064453
aF-19.540815353393555
aF-19.86815071105957
aF-20.07722282409668
aF-20.32655906677246
aF-20.51755714416504
aF-20.771846771240234
aF-21.01778793334961
aF-21.272005081176758
aF-21.53776741027832
aF-21.737934112548828
aF-22.008460998535156
aF-22.174543380737305
aF-22.32892417907715
aF-22.540178298950195
aF-22.69686508178711
aF-22.85150146484375
aF-22.992952346801758
aF-23.106277465820312
aF-23.36066436767578
aF-23.477062225341797
aF-23.57215690612793
aF-23.631591796875
aF-23.695241928100586
aF-23.72709083557129
aF-23.759201049804688
aF-23.786296844482422
aF-23.815540313720703
aF-23.82869529724121
aF-23.837217330932617
aF-23.834985733032227
aF-23.824766159057617
aF-23.806171417236328
aF-23.780611038208008
aF-23.736766815185547
aF-23.691835403442383
aF-23.62698745727539
aF-23.572004318237305
aF-23.48521614074707
aF-23.359373092651367
aF-23.291122436523438
aF-23.22560691833496
aF-23.163082122802734
aF-23.076133728027344
aF-23.014671325683594
aF-22.926603317260742
aF-22.821224212646484
aF-22.739824295043945
aF-22.656177520751953
aF-22.509624481201172
aF-22.42340087890625
aF-22.336139678955078
aF-22.2359619140625
aF-22.121219635009766
aF-22.046066284179688
aF-21.956159591674805
aF-21.82685661315918
aF-21.734495162963867
aF-21.589763641357422
aF-21.336591720581055
aF-21.240467071533203
aF-21.09148597717285
aF-20.968875885009766
aF-20.844846725463867
aF-20.747085571289062
aF-20.607290267944336
aF-20.507999420166016
aF-20.349685668945312
aF-20.204458236694336
aF-20.087295532226562
aF-19.98486328125
aF-19.88161277770996
aF-19.73248863220215
aF-19.626543045043945
aF-19.45429229736328
aF-19.307830810546875
aF-19.177448272705078
aF-19.044036865234375
aF-18.811294555664062
aF-18.486820220947266
aF-18.391307830810547
aF-18.264999389648438
aF-18.094324111938477
aF-17.98778533935547
aF-17.866724014282227
aF-17.76215362548828
aF-17.65830421447754
aF-17.569089889526367
aF-17.463228225708008
aF-17.32526397705078
aF-17.19985580444336
aF-17.035724639892578
aF-16.865211486816406
aF-16.74087142944336
aF-16.574071884155273
aF-16.421606063842773
aF-16.22470474243164
aF-16.061182022094727
aF-15.896524429321289
aF-15.468177795410156
aF-15.3805513381958
aF-15.158393859863281
aF-15.000553131103516
aF-14.841028213500977
aF-14.587891578674316
aF-14.450323104858398
aF-14.290452003479004
aF-14.108707427978516
aF-13.904492378234863
aF-13.745010375976562
aF-13.493226051330566
aF-13.330268859863281
aF-13.144014358520508
aF-12.931841850280762
aF-12.763633728027344
aF-12.572084426879883
aF-12.425102233886719
aF-12.175860404968262
aF-11.972989082336426
aF-11.47322940826416
aF-11.227014541625977
aF-11.001436233520508
aF-10.83161449432373
aF-10.602753639221191
aF-10.313535690307617
aF-10.19701099395752
aF-9.968327522277832
aF-9.714678764343262
aF-9.46505355834961
aF-8.50394058227539
aF-8.267876625061035
aF-8.02749252319336
aF-7.844043254852295
aF-7.533265590667725
aF-7.343770980834961
aF-7.123742580413818
aF-6.839393138885498
aF-6.588493824005127
aF-6.3990936279296875
aF-5.903390407562256
aF-5.567867755889893
aF-5.233323097229004
aF-5.051400184631348
aF-4.809109687805176
aF-4.508660793304443
aF-4.330348968505859
aF-3.975696086883545
aF-3.6818478107452393
aF-3.447300672531128
aF-3.299595832824707
aF-3.0912859439849854
aF-2.882216215133667
aF-2.671659231185913
aF-2.3671703338623047
aF-2.1512866020202637
aF-1.8711577653884888
aF-1.6234630346298218
aF-1.3128293752670288
aF-1.128208875656128
aF-0.6320395469665527
aF-0.3212732970714569
aF-0.010992070659995079
aF0.363106369972229
aF0.6109426021575928
aF0.8596516847610474
aF1.1719601154327393
aF1.426169753074646
aF1.6853290796279907
aF1.8823046684265137
aF2.214815616607666
aF2.549997329711914
aF2.8900890350341797
aF3.229649782180786
aF3.502124071121216
aF3.809512138366699
aF4.051485538482666
aF4.427730560302734
aF5.575060844421387
aF5.840429782867432
aF6.444548606872559
aF6.683255195617676
aF6.856884956359863
aF7.13744592666626
aF7.404829978942871
aF7.676915168762207
aF7.880356788635254
aF8.04875373840332
aF8.226548194885254
aF8.439168930053711
aF8.613336563110352
aF8.732008934020996
aF8.97192668914795
aF9.197667121887207
aF9.281841278076172
aF9.491312980651855
aF9.727516174316406
aF9.923669815063477
aF10.0971097946167
aF10.274767875671387
aF10.772275924682617
aF11.003983497619629
aF11.21420955657959
aF11.471543312072754
aF11.660645484924316
aF11.923057556152344
aF12.1895112991333
aF12.385995864868164
aF12.68122386932373
aF12.930261611938477
aF13.129307746887207
aF13.426740646362305
aF13.626862525939941
aF14.472206115722656
aF14.745536804199219
aF14.967984199523926
aF15.269569396972656
aF15.372212409973145
aF15.67852783203125
aF15.885815620422363
aF16.495803833007812
aF16.685638427734375
aF17.01012420654297
aF17.225784301757812
aF17.436933517456055
aF17.750654220581055
aF17.955242156982422
aF18.205602645874023
aF18.49697494506836
aF18.78087043762207
aF18.9676513671875
aF19.221843719482422
aF19.4764461517334
aF19.709320068359375
aF19.922393798828125
aF20.215469360351562
aF20.442241668701172
aF20.698898315429688
aF20.96376609802246
aaa(lp6
(lp7
F-0.1390739282888883
aF-0.2755367481285171
aF-0.3835058213900997
aF-0.43685673942395575
aF-0.493862955174952
aF-0.5300890939141059
aF-0.549507163594865
aF-0.5552393888366773
aF-0.556311607951942
aF-0.5494728811228379
aF-0.5424761262422583
aF-0.5302051972407034
aF-0.09424866703180851
aF0.0010377581744815787
aF0.13728985664417637
aF0.625352233991022
aF0.8061437470753735
aF0.9638776434179342
aF1.0628554759598936
aF1.13999333473602
aF1.5164290716482836
aF1.6265649141262173
aF1.69383810414325
aF1.8828571372315484
aF2.0650966916084714
aF2.166163106597007
aF2.296976373229749
aF2.4696987506172463
aF2.6687569337182433
aF2.7888187960103883
aF2.9968118846417364
aF3.253601171498846
aF3.3936151613675585
aF3.5553783711900584
aF3.748195683789937
aF3.94845172549864
aF4.095660989196701
aF4.341744809723028
aF4.473939938534657
aF4.6127450811228154
aF5.104375652535264
aF5.330142839510798
aF5.632045711306767
aF5.884254434687049
aF6.137441455368059
aF6.304171958601098
aF6.492199088904423
aF6.632685436609107
aF6.89143054576618
aF7.031367480794395
aF7.2949745007876325
aF7.511685242105758
aF7.726690629126742
aF7.88930485938465
aF8.100528221754843
aF8.258872079374285
aF8.430201465156063
aF8.684770204854903
aF8.895322309348744
aF9.087497167075327
aF9.550008956420383
aF9.679161267215754
aF9.790355566246252
aF9.94140985859863
aF10.085054408701621
aF10.255759004843942
aF10.401321101092467
aF10.64751826411086
aF10.78742030518328
aF10.97994880365918
aF11.308593370781715
aF11.635624445858408
aF11.85377337132263
aF12.112299739870519
aF12.48077441180127
aF12.748424208795878
aF12.981158478537221
aF13.343625218819549
aF13.640845046095677
aF14.04769498723414
aF14.966307234627541
aF15.252721487539658
aF15.741348192505734
aF16.164440574954487
aF16.60836863441254
aF16.909067761831576
aF17.381665319016466
aF17.702845412154293
aF18.128252832777363
aF18.619158683498032
aF19.041960303679986
aF19.358518999174496
aF19.696874782208358
aF20.161311712066027
aF20.51014994706957
aF21.0336417633483
aF21.4874757755464
aF21.810090725043892
aF22.30991492554655
aF22.76075494960498
aF23.953051523196567
aF24.277635757479345
aF24.575947885487405
aF25.065822112708634
aF25.526359116141634
aF25.833714134719028
aF26.133841363763803
aF26.423171035801385
aF26.700704343391678
aF26.952131211469386
aF27.375334002824022
aF27.664091338067056
aF28.022468922991642
aF28.460245137034523
aF28.754219109653825
aF29.064678021819486
aF29.33853786798608
aF29.698620372318807
aF30.195202883322303
aF30.47220426230297
aF31.355988888745966
aF31.663850407170845
aF31.981896897193963
aF32.47936229693274
aF32.82707711008446
aF33.1824623268108
aF33.662322505898395
aF34.011575599647514
aF34.348356100635904
aF34.829981443075205
aF35.2082106988178
aF35.8066916527016
aF36.393918408983154
aF36.78271997895749
aF37.219826359385564
aF37.867350787713974
aF38.3413560426765
aF38.77958574591083
aF39.32115445128063
aF40.10716642282149
aF41.59091321638183
aF42.076617602788595
aF42.83276929670907
aF43.386801636515095
aF43.889756500944934
aF44.426933701667636
aF45.25515051921918
aF45.806139754744926
aF46.403367752647256
aF47.299572957634965
aF47.83453817918331
aF50.985295394241554
aF51.588779150053824
aF52.26010949206477
aF52.871132950404075
aF53.875327932651615
aF54.51700268456361
aF55.1899383574762
aF56.20914357614019
aF56.86711023983251
aF58.454626215002904
aF59.069883613163285
aF59.97813296974785
aF60.85250954564093
aF61.484223582990424
aF62.3922044362493
aF62.922960477469324
aF63.49605529389134
aF64.70184415223879
aF65.54514457270217
aF66.15864017741713
aF66.76388627751308
aF67.36681348253751
aF67.90770344648658
aF68.47232954685076
aF69.35859011531547
aF69.96590872775998
aF70.85761232360494
aF71.45989942151202
aF72.40965038016539
aF73.9766596581952
aF74.68931201459012
aF75.58130100222567
aF76.56793908294074
aF77.72391201315443
aF78.24821906970179
aF79.08758124279952
aF79.62688591482663
aF80.5318195941614
aF81.0835562025447
aF81.6116971034653
aF82.49652419232562
aF83.38586426606989
aF84.26983786218108
aF85.11379188593617
aF85.71215616952402
aF86.64178867434535
aF87.29118495180235
aF88.20101301203883
aF91.1218440380841
aF92.83939169615036
aF93.64815779819546
aF94.20445968864935
aF94.7479693470286
aF95.46379360245182
aF96.18810457659565
aF96.82356033539861
aF97.52477422013219
aF98.01180151597347
aF98.63950652309144
aF99.21476914435418
aF99.90288543035852
aF100.28335652502734
aF100.86234388825359
aF101.4518435927186
aF101.79080762971167
aF102.3891293084578
aF102.96575124454519
aF103.50870797389543
aF103.9153214538513
aF105.15507996565863
aF105.73308928667142
aF106.30202005104346
aF106.85511505376218
aF107.52359948300142
aF108.08037108389006
aF108.63062830987433
aF109.17716053740743
aF109.73182909905273
aF110.28655950231739
aF110.81525520844663
aF111.3929872333456
aF111.89518159076417
aF112.35622768556232
aF114.09407670687717
aF114.69238287010995
aF115.27650653213377
aF115.8657699331007
aF116.2504634618125
aF116.81460846595735
aF118.1841202637998
aF118.854182488767
aF119.5297091608812
aF120.14953640616413
aF120.66157268634007
aF121.33722249807604
aF122.1081564744553
aF122.84762812171395
aF123.58071193460871
aF124.6034684703146
aF125.335568148702
aF126.07706012559848
aF126.7998521938565
aF127.58008078555535
aF128.3095225730135
aF129.1005834913309
aF129.9027483477928
aF130.64232475005508
aF131.44069313023857
aF132.22269822485603
aa(lp8
F-0.6130667958566806
aF-0.6120763830536422
aF-0.6109219540036593
aF-0.6099780444996135
aF-0.6034807030830887
aF-0.5953653401378924
aF-0.5834322275049423
aF-0.5793746290135535
aF-0.5658153780087951
aF-0.5520981999672878
aF-0.539227514613868
aF-0.528829839511301
aF0.00034908453739973533
aF0.029572330866688423
aF0.4867615756952728
aF0.583367473368727
aF1.035121984295981
aF1.0520793091236866
aF1.0710474185662178
aF1.0895928533284776
aF1.5651579189183717
aF1.5911868774937983
aF1.603278528926342
aF2.0538591397687638
aF2.082471317308658
aF2.1041316579567955
aF2.5542993982770805
aF2.5758443951491907
aF2.6263973685554243
aF3.092825880379862
aF3.1426131492236156
aF3.2169297391321576
aF3.2659794561234055
aF3.750014933297212
aF3.797281734574664
aF3.8429819280017354
aF4.292887228080702
aF4.335132719651735
aF4.365907832201199
aF4.828137748640153
aF5.3456619789665965
aF5.807398603257975
aF5.840017016363114
aF6.294465328051116
aF6.318369499385436
aF6.757969468297903
aF6.772160897042014
aF6.787486436152303
aF7.230876126823586
aF7.2420672553583865
aF7.682110129072244
aF8.11604931220294
aF8.12331962904871
aF8.12927184629649
aF8.557256372964755
aF8.556270168898708
aF8.984783340960517
aF8.981400433273805
aF9.402246715280508
aF9.39429164846898
aF9.810846726601344
aF9.802923383343575
aF10.227437136176171
aF10.218626965852163
aF10.63857836240741
aF10.63411570385105
aF10.629355998866929
aF11.041148849799653
aF11.461295661154013
aF11.456943426324491
aF11.869063335229733
aF12.285760265394897
aF12.701893057237962
aF12.698120755722401
aF13.11054968654667
aF13.530365807639308
aF13.946353521724264
aF14.358661584558153
aF14.353470288053254
aF15.191721948744307
aF16.018706401206476
aF16.435519342306144
aF16.847733329988344
aF17.265960966369075
aF17.678212374893747
aF18.09539669596571
aF18.50794391638376
aF18.499892378518165
aF19.336176449705263
aF19.74774224863589
aF20.160063059212565
aF20.580200303019875
aF20.57182478196232
aF21.409302324580302
aF21.824737599388907
aF22.236939696103033
aF22.648589414461526
aF23.064099377815666
aF23.47637768179312
aF23.878944002077827
aF25.12425675665826
aF25.120116503548854
aF25.531486798602682
aF25.943804830499833
aF26.35048554617339
aF26.765962398034283
aF27.182452426217722
aF27.16945531564724
aF27.58645663520678
aF27.998079054292255
aF28.41051005669497
aF28.399373965741272
aF28.812103801956333
aF29.220259242114587
aF29.63180639316795
aF30.03749689531212
aF30.029531306359196
aF30.862211630383396
aF31.271226943978018
aF31.259051853394794
aF32.49994860749776
aF32.91338002631297
aF32.904568890620475
aF33.7370072291269
aF34.147255682122605
aF34.55523099275028
aF34.96760373702243
aF34.954390589514425
aF35.36644038259174
aF36.19340149349878
aF36.605871660489576
aF37.012152871545005
aF37.84618267055969
aF38.26682114956346
aF38.67963565390889
aF39.515607286448926
aF39.93216462236631
aF40.349110662833134
aF41.181974460838305
aF41.595213188537095
aF43.26429622144726
aF44.097257489176
aF44.51248738838058
aF44.9241394378548
aF45.76128446999477
aF46.59334667687788
aF47.00549498734912
aF47.83772854760211
aF48.253497257336015
aF49.07793166658871
aF49.49363892087097
aF52.83464155299904
aF53.67023839935588
aF54.08281509351796
aF55.34390829271409
aF55.76054528870966
aF56.60188015182277
aF57.43209967186852
aF58.26845623236838
aF58.68388814685206
aF60.34862690344104
aF61.176800459216274
aF62.003960081261766
aF62.83592306799647
aF63.66364971613087
aF64.07417420493798
aF64.90704047144662
aF65.73430789839975
aF66.98025901988184
aF67.38862372227413
aF68.2207374136505
aF68.6320596574829
aF69.0398985056359
aF69.87205243251678
aF70.70160329874963
aF71.114193706045
aF72.37093058662708
aF72.78373777672137
aF73.6120660315793
aF74.44882887049731
aF76.10836134868666
aF76.93680984066062
aF77.76155499208697
aF78.58965007882237
aF79.4136793071851
aF80.2417407716251
aF81.06675105750111
aF81.89275851036189
aF82.30311678200776
aF82.71055598987401
aF83.95923104175034
aF84.78274369605252
aF85.6061575756614
aF86.43452660178767
aF87.26707242306318
aF88.09195452848128
aF88.91962554699839
aF89.7464010316744
aF90.15202142133566
aF93.45673908652604
aF95.10652567163982
aF95.51425772351284
aF95.9262192696941
aF96.75447614342028
aF97.15841967696508
aF97.98695663304733
aF98.81599623717932
aF99.23221486220055
aF99.63562977618272
aF100.04381774130276
aF100.8766145013568
aF101.28928057065131
aF101.70166360818646
aF102.5335649123549
aF102.52442283523877
aF103.36066369939213
aF103.76839493327643
aF104.6007336225659
aF105.01685633104289
aF105.42545341173351
aF106.6648310551244
aF107.07192712545225
aF107.90254667392742
aF108.73683250818486
aF109.14510865126655
aF109.5536063856439
aF109.96238168481523
aF110.79431867196026
aF111.20280037617759
aF111.61008276847365
aF112.43722501399766
aF112.8450865234258
aF113.25294723803458
aF113.66049013030897
aF115.72248532800424
aF116.1295018224594
aF116.96119761318715
aF117.37232769097521
aF117.78087402016804
aF118.60932059781602
aF119.84881250190931
aF120.6803451390857
aF121.08797792128735
aF121.91672804020949
aF122.33402943597864
aF123.16285620558114
aF123.98967631380006
aF124.82272821323548
aF125.65499438302527
aF126.48856075581874
aF127.32146399641701
aF127.73463763984756
aF128.5670839742746
aF129.4011865957285
aF130.22938995107162
aF131.06252046572828
aF131.8949000687002
aF132.72766525326605
aF133.5601823833027
aF134.3927977018384
aa(lp9
F8.258381823540331e-06
aF6.556130826003251e-05
aF0.0002016093533193769
aF0.0004318662937492154
aF0.0011584237477328901
aF0.0025915074836127426
aF0.004715111377406795
aF0.0072177236579437235
aF0.012492444260488464
aF0.019523090170890302
aF0.028411331250855792
aF0.11634780198099232
aF0.1771945356959669
aF0.22598290007734578
aF0.46320198998543144
aF0.532975697398578
aF0.6056613057065966
aF0.6746768485383846
aF0.7319697075523119
aF0.7927813693550696
aF0.9766655282060298
aF1.0542014952482974
aF1.1423154284674253
aF1.2363358662493977
aF1.3355929190944429
aF1.43306668613051
aF1.5119250540097013
aF1.6098663113566563
aF1.7424584311535147
aF1.8629924418771664
aF2.10299889620148
aF2.3351659855227522
aF2.6007134955680558
aF2.8091329981614233
aF3.023186581556467
aF3.257002194334401
aF3.4615904940572637
aF3.6794909501426267
aF3.890235195393511
aF4.076728536565117
aF4.5568182028372695
aF4.812744234618741
aF5.036637339188237
aF5.225760090169577
aF5.430372624336415
aF5.552860148785945
aF5.696833181047033
aF5.866085065295881
aF6.052483163236622
aF6.180032085910773
aF6.382059189660018
aF6.566844010659383
aF6.719705014065141
aF6.8930974726866445
aF7.083506748970582
aF7.250504775288881
aF7.472551334273547
aF7.672335871579425
aF7.858201722839034
aF8.095201508508854
aF8.452168903527989
aF8.64501312471796
aF8.838652866799684
aF9.003414088646808
aF9.29230309190452
aF9.477934252149458
aF9.757564399356502
aF10.097664006098814
aF10.307938672031566
aF10.559211273671197
aF11.003723204521856
aF11.347444381771009
aF11.677627766791044
aF11.929782291392709
aF12.34476444363927
aF12.59491979347688
aF12.802690049906426
aF13.187363587801883
aF13.483987369860152
aF13.912453704116478
aF14.820817270841763
aF15.08428761387678
aF15.50894754569111
aF15.864423968299793
aF16.272953898682225
aF16.553254111210222
aF16.98645909365663
aF17.258087664433738
aF17.67211963605326
aF18.078435817355658
aF18.41370096561413
aF18.724716107769417
aF19.022837771975514
aF19.43835704528564
aF19.753156325662893
aF20.164225082246777
aF20.577319171972913
aF20.8848245020509
aF21.3649458981041
aF21.902689511388612
aF22.871506261112444
aF23.122902199977432
aF23.481036145923433
aF23.961757490829715
aF24.358951842815177
aF24.681529371895113
aF24.97435641379292
aF25.34050063823109
aF25.56887413899934
aF25.862455868257097
aF26.304351591958568
aF26.63795841193824
aF26.976289878286888
aF27.508441833751522
aF27.73812101094595
aF28.077850759941512
aF28.381221251693553
aF28.82549787468485
aF29.26825858912389
aF29.56343469422388
aF30.4572623832553
aF30.68469965871604
aF31.125033095185763
aF31.566278741773246
aF31.918142695869403
aF32.434058485770336
aF32.7044134190978
aF33.14368073646877
aF33.49737816187794
aF33.93617369692903
aF34.334264249220595
aF34.89346639735292
aF35.396866320356295
aF35.80595622579066
aF36.308515368307766
aF36.87453747047234
aF37.32802725285454
aF37.71591536976328
aF38.46952879961731
aF38.884766764177336
aF40.25607066029512
aF40.9423283451936
aF41.46259106171391
aF41.88376181807555
aF42.43955945434448
aF43.110372944675305
aF43.55152547492999
aF44.03815019831951
aF44.64684041974446
aF45.30524208807043
aF47.85860245463238
aF48.468521218875324
aF49.09569762064646
aF49.59736969948702
aF50.35418975149831
aF50.852987406385665
aF51.43441670863967
aF52.25583077204503
aF52.853323651248445
aF53.28258022023704
aF54.69911990301497
aF55.4826050208858
aF56.26548642198912
aF56.78994642549328
aF57.51055442958443
aF58.12556275268702
aF58.634749843225244
aF59.47855788837325
aF60.29954013536059
aF60.8198843468429
aF61.27774171752515
aF61.827388829204125
aF62.34677472722082
aF62.840280053610066
aF63.585698364687495
aF64.02506968324094
aF64.80772551889687
aF65.34333198767243
aF66.13226375177004
aF66.6902583906646
aF67.96612474671251
aF68.78892627629693
aF69.52278317512501
aF70.40263082130949
aF71.02708709641648
aF71.63699654216848
aF72.28295528955343
aF73.04178425802729
aF73.58618222768825
aF74.03919417355871
aF74.8273051090627
aF75.53496272327384
aF76.34014360679336
aF77.0326536559369
aF77.53926304441386
aF78.33060852215904
aF78.86084131181899
aF79.67140706649111
aF82.16866408221446
aF82.84419035862997
aF84.32570173628565
aF84.80577576627404
aF85.20869126300687
aF85.9144375813396
aF86.46607171394314
aF87.03535273151503
aF87.61259646736484
aF87.94960119863305
aF88.4489260317315
aF88.87901206047657
aF89.33114141386228
aF89.6361402150884
aF90.06260464603899
aF90.60785730626813
aF90.84923599259636
aF91.30492586214702
aF91.81397004072863
aF92.19900315459586
aF92.54225672703582
aF93.03871914984182
aF94.09852801669685
aF94.57710942170294
aF95.03109941659953
aF95.58296535142786
aF96.06170310195122
aF96.58248343272128
aF97.0349994267078
aF97.52494266123253
aF98.11139648803747
aF98.55078959024077
aF99.06234891742474
aF99.62574049173872
aF100.0563525928837
aF101.77527741022202
aF102.30735600842557
aF102.80268593292682
aF103.40770371242235
aF103.67665106454979
aF104.26758791328331
aF104.7636061444551
aF106.00967325883315
aF106.507487982561
aF107.15509962186628
aF107.65090439329666
aF108.09231100556494
aF108.69781212071764
aF109.26461888835945
aF109.8037499660688
aF110.49038603642602
aF111.24738536017777
aF111.88982794114806
aF112.55041489556177
aF113.27629548362879
aF113.87995697653778
aF114.51396721256857
aF115.29251350790992
aF115.86138275734139
aF116.61522202982984
aF117.24744775963833
aF117.94551390583622
aa(lp10
F-2.6646668910980225
aF-2.6617822647094727
aF-2.6581807136535645
aF-2.652956485748291
aF-2.6428041458129883
aF-2.635153293609619
aF-2.6263158321380615
aF-2.616421699523926
aF-2.6032941341400146
aF-2.592911958694458
aF-2.5833897590637207
aF-2.581562042236328
aF-2.6014914512634277
aF-2.6230974197387695
aF-2.756042003631592
aF-2.795504093170166
aF-2.8416554927825928
aF-2.8820128440856934
aF-2.928955316543579
aF-2.9679059982299805
aF-3.096273183822632
aF-3.1615114212036133
aF-3.221388578414917
aF-3.3105576038360596
aF-3.371446132659912
aF-3.448664426803589
aF-3.5118274688720703
aF-3.6029367446899414
aF-3.7018649578094482
aF-3.8182973861694336
aF-3.9600439071655273
aF-4.08144474029541
aF-4.267360210418701
aF-4.396472454071045
aF-4.527233123779297
aF-4.725048542022705
aF-4.8880815505981445
aF-5.063792705535889
aF-5.242772102355957
aF-5.402234077453613
aF-5.832885265350342
aF-6.078701496124268
aF-6.3153510093688965
aF-6.487266540527344
aF-6.704126834869385
aF-6.831919193267822
aF-6.981727600097656
aF-7.135189056396484
aF-7.360850811004639
aF-7.518422603607178
aF-7.7636260986328125
aF-7.923672199249268
aF-8.110373497009277
aF-8.299339294433594
aF-8.478897094726562
aF-8.708060264587402
aF-8.897008895874023
aF-9.131062507629395
aF-9.312610626220703
aF-9.588749885559082
aF-9.986971855163574
aF-10.206433296203613
aF-10.420112609863281
aF-10.626951217651367
aF-10.919136047363281
aF-11.12865161895752
aF-11.43303108215332
aF-11.804174423217773
aF-12.096846580505371
aF-12.403298377990723
aF-12.955384254455566
aF-13.289095878601074
aF-13.632797241210938
aF-14.032166481018066
aF-14.49443244934082
aF-14.799201965332031
aF-15.164494514465332
aF-15.690337181091309
aF-16.065561294555664
aF-16.652315139770508
aF-17.67548179626465
aF-18.060739517211914
aF-18.65227508544922
aF-19.133947372436523
aF-19.615793228149414
aF-19.991790771484375
aF-20.52322006225586
aF-20.89641761779785
aF-21.484195709228516
aF-22.01641273498535
aF-22.44122886657715
aF-22.80906105041504
aF-23.176538467407227
aF-23.702381134033203
aF-24.07344627380371
aF-24.673538208007812
aF-25.18218994140625
aF-25.63488006591797
aF-26.09989356994629
aF-26.923824310302734
aF-28.117780685424805
aF-28.481700897216797
aF-28.9731502532959
aF-29.656452178955078
aF-30.095163345336914
aF-30.604894638061523
aF-31.053997039794922
aF-31.50624656677246
aF-31.896833419799805
aF-32.35751724243164
aF-32.949462890625
aF-33.477317810058594
aF-34.146305084228516
aF-34.81040573120117
aF-35.278541564941406
aF-35.887046813964844
aF-36.42618179321289
aF-37.104461669921875
aF-37.65598678588867
aF-38.20389938354492
aF-39.597476959228516
aF-39.877891540527344
aF-40.58390808105469
aF-41.08210372924805
aF-41.584102630615234
aF-42.383785247802734
aF-42.8226432800293
aF-43.337581634521484
aF-43.929283142089844
aF-44.60271453857422
aF-45.13302993774414
aF-45.97258377075195
aF-46.51447296142578
aF-47.13401794433594
aF-47.83860397338867
aF-48.39509201049805
aF-49.02666473388672
aF-49.50945281982422
aF-50.3223762512207
aF-50.976783752441406
aF-52.55583953857422
aF-53.315589904785156
aF-54.00338363647461
aF-54.51713180541992
aF-55.20535659790039
aF-56.07769012451172
aF-56.43263244628906
aF-57.140106201171875
aF-57.94434356689453
aF-58.75236892700195
aF-61.8572998046875
aF-62.59445571899414
aF-63.33408737182617
aF-63.8917236328125
aF-64.8270492553711
aF-65.3924331665039
aF-66.0484390258789
aF-66.89735412597656
aF-67.6495132446289
aF-68.22024536132812
aF-69.7305679321289
aF-70.7667236328125
aF-71.80675506591797
aF-72.3739013671875
aF-73.13172912597656
aF-74.07978820800781
aF-74.64714050292969
aF-75.78730773925781
aF-76.74188995361328
aF-77.50476837158203
aF-77.98287963867188
aF-78.65450286865234
aF-79.32491302490234
aF-79.9955062866211
aF-80.95458984375
aF-81.62679290771484
aF-82.49333953857422
aF-83.258056640625
aF-84.22219848632812
aF-84.7977523803711
aF-86.34481048583984
aF-87.3107681274414
aF-88.27494049072266
aF-89.44166564941406
aF-90.21866607666016
aF-91.0001449584961
aF-91.98019409179688
aF-92.77017974853516
aF-93.56436920166016
aF-94.1583251953125
aF-95.1438217163086
aF-96.12155151367188
aF-97.10724639892578
aF-98.0895004272461
aF-98.8756103515625
aF-99.76072692871094
aF-100.45760345458984
aF-101.54170989990234
aF-104.8895034790039
aF-105.67879486083984
aF-107.49500274658203
aF-108.21561431884766
aF-108.73956298828125
aF-109.58348846435547
aF-110.39091491699219
aF-111.228515625
aF-111.87215423583984
aF-112.41334533691406
aF-112.98686981201172
aF-113.66575622558594
aF-114.2127456665039
aF-114.58182525634766
aF-115.32003021240234
aF-116.00345611572266
aF-116.25521850585938
aF-116.87415313720703
aF-117.56548309326172
aF-118.13575744628906
aF-118.63734436035156
aF-119.1490478515625
aF-120.57501220703125
aF-121.2373275756836
aF-121.83814239501953
aF-122.57269287109375
aF-123.11167907714844
aF-123.8593978881836
aF-124.61774444580078
aF-125.17743682861328
aF-126.02037048339844
aF-126.73641967773438
aF-127.31395721435547
aF-128.1861572265625
aF-128.77919006347656
aF-131.3036346435547
aF-132.12391662597656
aF-132.79176330566406
aF-133.6878204345703
aF-133.98995971679688
aF-134.88282775878906
aF-135.48004150390625
aF-137.2042236328125
aF-137.73182678222656
aF-138.63204956054688
aF-139.23748779296875
aF-139.8400115966797
aF-140.75738525390625
aF-141.37388610839844
aF-142.15020751953125
aF-143.09005737304688
aF-144.0457305908203
aF-144.69546508789062
aF-145.5989227294922
aF-146.51661682128906
aF-147.3553009033203
aF-148.1123046875
aF-149.12930297851562
aF-149.89767456054688
aF-150.751220703125
aF-151.61793518066406
aaa(lp11
(lp12
F0.029879501151716087
aF0.08536147402714878
aF0.12134122986375154
aF0.18834688598219232
aF0.27993079828478995
aF0.42433118219341726
aF0.5511503976343384
aF0.6247322185094237
aF0.7374714851777927
aF0.8601792141692198
aF0.9129378115608033
aF1.003057824550693
aF1.2898943179104592
aF1.2859483569337995
aF1.2689367487266796
aF1.2146752234214615
aF1.0711668826571792
aF0.8768454862520335
aF0.7652811733139255
aF0.7445512276898532
aF0.8303693386239129
aF0.8871020145664142
aF0.9668683295545366
aF1.0021143547952678
aF0.9865300261564067
aF1.021741950943572
aF1.0865672143198501
aF1.1049515089440678
aF1.0668404927533612
aF1.0957454338245831
aF0.9922793032725022
aF0.7098095658684775
aF0.7693574724650907
aF0.732935395491321
aF0.6665742958874181
aF0.6276293478493236
aF0.6358239895146057
aF0.5964012642707827
aF0.6229837307363922
aF0.4318068389399792
aF0.4200447027134046
aF0.4487393150831436
aF0.44817390753882597
aF0.40402888146582366
aF0.37633625651410924
aF0.3919275322921919
aF0.37226660724193483
aF0.3474695322012237
aF0.3748317049281892
aF0.3315847866130193
aF0.4383066606767222
aF0.3640313256410558
aF0.4022434209076861
aF0.43416677064512427
aF0.3642429205241487
aF0.3787985645541406
aF0.45735601407627774
aF0.40722940386532286
aF0.4329449391509661
aF0.5656584577708496
aF0.5284266411113325
aF0.3204002339843079
aF0.32266747577338
aF0.4522673925314142
aF0.3976626027750958
aF0.4453098349178148
aF0.5419758495019774
aF0.5837177850017775
aF0.4453801336482583
aF0.4219352241309128
aF0.5668316856146415
aF0.5735928825370389
aF0.5900141453707154
aF0.5527383895299528
aF0.48536115730156193
aF0.5484301333864325
aF0.4307478780294779
aF0.41338660585529724
aF0.46927419349280336
aF0.48961519621159005
aF0.5917314776709579
aF0.4268095485111123
aF0.6978825324679541
aF0.4161582857361193
aF0.6271436772223918
aF0.46019362105691075
aF0.5230401773294027
aF0.5530359277170236
aF0.47537348271014157
aF0.5485073683080938
aF0.4296470029895575
aF0.5552713782121401
aF0.56210316319888
aF0.5509754524918317
aF0.5766828269470691
aF0.5736621229401325
aF0.504135879160403
aF0.4926473067298716
aF0.746986885548074
aF0.49609335942739297
aF0.6380474287335492
aF0.4962705977427765
aF0.48396359591591914
aF0.5488650045027714
aF0.5003812517645966
aF0.619900146692991
aF0.6932217506517353
aF0.5432208766489119
aF0.4355305736817864
aF0.4725443748175478
aF0.553091043885744
aF0.47806699419697607
aF0.49937037457371436
aF0.5829669786023967
aF0.5946887256012899
aF0.27813957656450383
aF0.509087159850354
aF0.3401278626592816
aF0.7367310419732958
aF0.46711643497124894
aF0.649908554664638
aF0.4750973527190201
aF0.45917733468295635
aF0.6068326335498083
aF0.6654684410677252
aF0.6356982477989219
aF0.5451279159073008
aF0.5721482791498682
aF0.7483373752473018
aF0.5017601392302672
aF0.6638629581806494
aF0.5058141949218216
aF0.6944350592469105
aF0.5446911446020866
aF0.7100632025624726
aF0.7706588962710547
aF0.8039517646079929
aF0.7296399662809987
aF0.8594584035313622
aF0.982904554578388
aF0.9188979626302597
aF0.9695947092099739
aF0.9593907795130615
aF0.9072306801096809
aF0.780168474909532
aF1.03102388639101
aF0.8711116403368161
aF0.7519831357447735
aF0.8898164179175728
aF1.0504945023576344
aF0.6202636069611308
aF0.9741945363004365
aF0.9286195734279558
aF1.1234949436461843
aF1.0524571095098458
aF1.0113050382076756
aF1.2347250608892886
aF0.9990390764985346
aF1.293304420195295
aF0.9084131126799843
aF1.2073772196563952
aF1.065610834060248
aF1.0328951755644635
aF0.8774195998869634
aF0.9913187602200185
aF1.04620171275965
aF0.7173737077212741
aF0.8934917170107277
aF1.0150433270635921
aF0.7528398390708366
aF0.8761444779890293
aF0.9041808509927721
aF0.9169620228753904
aF0.8722166028992477
aF0.9792986555782693
aF0.9784732607386392
aF1.1648643912271621
aF0.9003955713071535
aF0.862140036819962
aF1.0514340947489094
aF0.979414675131482
aF1.0386049744534536
aF0.759993956527128
aF1.2443891925623765
aF0.7937276099122469
aF0.8329295382736501
aF0.8421492389373314
aF0.8603330638651209
aF1.1386305475672913
aF0.9304470999619935
aF0.9407183703309993
aF0.9833778834618494
aF0.7439959440883481
aF0.8941419976042847
aF0.7440113600279009
aF0.9027569578927764
aF0.9021477799989582
aF1.0560769902111262
aF0.9111448854524414
aF0.926200308112291
aF0.8883362269207293
aF0.6770292435073431
aF0.8401412896533561
aF0.735434655986802
aF0.6415555966312301
aF0.6477142046011329
aF0.5545438596721305
aF0.6547756907919215
aF0.6275355359208815
aF0.5560788459327108
aF0.45077163362217604
aF0.6363864285727137
aF0.536703827095806
aF0.4784432660189304
aF0.5957430993503487
aF0.3577000633608704
aF0.7851816165208563
aF0.4597096551870678
aF0.5448351729360966
aF0.5909923065886332
aF0.6044674043871558
aF0.6759510723355147
aF0.5490784299854679
aF0.5929026195460172
aF0.7199425595407674
aF0.4954478821860461
aF0.5308164393312225
aF0.45883434059742156
aF0.6600488491921847
aF0.5024694983681722
aF0.4910586634872962
aF0.6480984544646398
aF0.634119228393148
aF0.5859115018857436
aF0.5920009372807817
aF0.8269238669309561
aF0.6504181428002368
aF0.5393193422047597
aF0.5182348065563162
aF-0.3250628999221568
aF0.7822002385536491
aF0.4338304323390121
aF0.8254582506142922
aF0.41167533489540165
aF0.8050530900312503
aF0.48293954730795297
aF0.7590806187874432
aF0.6609908469432645
aF0.8648921412341183
aF0.8757124138065422
aF0.8656664648395288
aF0.8224174197902078
aF0.8553896310156648
aF0.8565981700093301
aF0.7886183013419368
aF0.8945357020373911
aF0.9717378028960216
aF0.8730874440286842
aF1.04309252687974
aF0.8779207476036394
aa(lp13
F0.0
aF0.0
aF0.0
aF0.0
aF0.0
aF0.0
aF0.0
aF0.0
aF0.0
aF0.0
aF0.0
aF0.0
aF0.0
aF0.0
aF0.0
aF0.0
aF0.0
aF0.0
aF0.0
aF0.0
aF0.0
aF0.0
aF0.0
aF0.0
aF0.0
aF0.0
aF0.0
aF0.0
aF0.0
aF0.0
aF0.0
aF0.0
aF0.0
aF0.0
aF0.0
aF0.0
aF0.0
aF0.0
aF0.0
aF0.0
aF0.0
aF0.0
aF0.0
aF0.0
aF0.0
aF0.0
aF0.0
aF0.0
aF0.0
aF0.0
aF0.0
aF0.0
aF0.0
aF0.0
aF0.0
aF0.0
aF0.0
aF0.0
aF0.0
aF0.0
aF0.0
aF0.0
aF0.0
aF0.0
aF0.0
aF0.0
aF0.0
aF0.0
aF0.0
aF0.0
aF0.0
aF0.0
aF0.0
aF0.0
aF0.0
aF0.0
aF0.0
aF0.0
aF0.0
aF0.0
aF0.0
aF0.0
aF0.0
aF0.0
aF0.0
aF0.0
aF0.0
aF0.0
aF0.0
aF0.0
aF0.0
aF0.0
aF0.0
aF0.0
aF0.0
aF0.0
aF0.0
aF0.0
aF0.0
aF0.0
aF0.0
aF0.0
aF0.0
aF0.0
aF0.0
aF0.0
aF0.0
aF0.0
aF0.0
aF0.0
aF0.0
aF0.0
aF0.0
aF0.0
aF0.0
aF0.0
aF0.0
aF0.0
aF0.0
aF0.0
aF0.0
aF0.0
aF0.0
aF0.0
aF0.0
aF0.0
aF0.0
aF0.0
aF0.0
aF0.0
aF0.0
aF0.0
aF0.0
aF0.0
aF0.0
aF0.0
aF0.0
aF0.0
aF0.0
aF0.0
aF0.0
aF0.0
aF0.0
aF0.0
aF0.0
aF0.0
aF0.0
aF0.0
aF0.0
aF0.0
aF0.0
aF0.0
aF0.0
aF0.0
aF0.0
aF0.0
aF0.0
aF0.0
aF0.0
aF0.0
aF0.0
aF0.0
aF0.0
aF0.0
aF0.0
aF0.0
aF0.0
aF0.0
aF0.0
aF0.0
aF0.0
aF0.0
aF0.0
aF0.0
aF0.0
aF0.0
aF0.0
aF0.0
aF0.0
aF0.0
aF0.0
aF0.0
aF0.0
aF0.0
aF0.0
aF0.0
aF0.0
aF0.0
aF0.0
aF0.0
aF0.0
aF0.0
aF0.0
aF0.0
aF0.0
aF0.0
aF0.0
aF0.0
aF0.0
aF0.0
aF0.0
aF0.0
aF0.0
aF0.0
aF0.0
aF0.0
aF0.0
aF0.0
aF0.0
aF0.0
aF0.0
aF0.0
aF0.0
aF0.0
aF0.0
aF0.0
aF0.0
aF0.0
aF0.0
aF0.0
aF0.0
aF0.0
aF0.0
aF0.0
aF0.0
aF0.0
aF0.0
aF0.0
aF0.0
aF0.0
aF0.0
aF0.0
aF0.0
aF0.0
aF0.0
aF0.0
aF0.0
aF0.0
aF0.0
aF0.0
aF0.0
aF0.0
aF0.0
aF0.0
aF0.0
aF0.0
aF0.0
aF0.0
aF0.0
aF0.0
aF0.0
aF0.0
aF0.0
aF0.0
aF0.0
aF0.0
aF0.0
aF0.0
aF0.0
aF0.0
aa(lp14
F0.09424769067430705
aF0.1138823323242601
aF0.19242070793807842
aF0.2473966331684859
aF0.38090509960813235
aF0.5144023205026597
aF0.6125359318896121
aF0.7027991613601579
aF0.812607794334036
aF0.910508040371466
aF1.0122528287250028
aF1.280859271254143
aF1.2499137321927682
aF1.2817080049682477
aF1.2123133878845611
aF1.1050114696463542
aF0.9218226533287952
aF0.7564144255524557
aF0.7169962914655732
aF0.7299602262472982
aF0.8531499165182633
aF0.9402944296426711
aF0.9650600973661471
aF0.9759781739681277
aF0.976412836605748
aF1.0393501569570218
aF1.0405620142031204
aF1.0341269032709217
aF1.0262560247048014
aF1.0362776449750781
aF0.26684253651128237
aF0.4942806649446258
aF0.4149451099826748
aF0.24923961558509716
aF0.2144692876156643
aF0.3079456474278429
aF0.2521148629276168
aF0.21547328442114072
aF-0.1800187683472635
aF0.07379457331141936
aF0.04132606754255992
aF0.06932098184448843
aF0.022263996771230397
aF0.008045591687465926
aF0.0004911228035191139
aF-0.016941786662916538
aF-0.04219419974744453
aF0.020520194104826757
aF-0.002052115000790613
aF-0.052587592828616435
aF-0.0038139490880110356
aF0.032406804688677765
aF0.07133391360438247
aF-0.030035417464135593
aF-0.039692909898075834
aF-0.05529889081972619
aF-0.08452963258277443
aF-0.2304043610190916
aF0.3569631563805251
aF0.2256898539181707
aF-0.2987447219681919
aF-0.31826616704060307
aF-0.10365252335020872
aF-0.3622506092135777
aF-0.39771130078009176
aF-0.396415787410849
aF-0.38409059262555095
aF-0.8459735350554297
aF-0.9993319728833108
aF-0.6512103559547289
aF-0.6011660875805321
aF-0.6303279569780573
aF-0.746089427892413
aF-1.1598161761313246
aF-0.7953601404291328
aF-0.9109814516660155
aF-1.2008668767144581
aF-1.063729108277895
aF-1.1235002067339783
aF-0.9167253911956242
aF-1.1841322665585916
aF-0.8393050068004321
aF-1.1384266327640062
aF-0.8148345080651763
aF-0.8940818207411665
aF-0.9066628733678125
aF-0.9924030504460267
aF-1.405602842355462
aF-0.810097405266583
aF-1.3201743179834184
aF-1.2369866058832837
aF-0.9264646523170165
aF-1.2476856212527532
aF-0.9959533332770234
aF-1.0082574753075115
aF-1.347987062310015
aF-1.1232367648229977
aF-0.9151015722678072
aF-1.106354222426979
aF-1.283390232655978
aF-1.3983654634615734
aF-1.5282618402920334
aF-1.1748189262653337
aF-1.7709140167851973
aF-1.246573049751326
aF-1.3811558284450203
aF-1.315623618147361
aF-1.7775973585632336
aF-1.5133754059607083
aF-1.2977435706758669
aF-1.8314251340160042
aF-1.3305703141245762
aF-2.011832290496868
aF-1.1565566283210347
aF-2.1808973233583147
aF-1.6790827423265826
aF-2.0332903759036896
aF-1.3728746277851933
aF-1.8485269238143403
aF-2.1330060624544886
aF-2.034447282766702
aF-1.9828032060377658
aF-1.5469820480293683
aF-2.0383369375782157
aF-1.533701295581797
aF-1.979724859614827
aF-1.99258247051175
aF-1.7775681269150716
aF-2.034722299736069
aF-1.7923554026471635
aF-1.718622215824848
aF-1.7149161851218964
aF-1.689691434046261
aF-1.729156373092098
aF-1.445403490207813
aF-1.5763928497195403
aF-1.5369381128509443
aF-1.583598760725847
aF-1.241475495334507
aF-1.5511253543103676
aF-1.5733045506020025
aF-1.463693263591998
aF-1.5474929175203458
aF-1.613968691687903
aF-1.5288591702600525
aF-1.5709584257585116
aF-1.5582107785891715
aF-1.920422908544813
aF-1.309190881902823
aF-1.913176407988128
aF-1.4362729734632143
aF-1.8455199267489302
aF-1.1712032886472763
aF-1.0609318273107624
aF-1.6143368350974747
aF-1.037570408910566
aF-1.498364080074949
aF-1.0503353459340594
aF-1.321120181554098
aF-2.147602733089414
aF-1.9710090192421272
aF-1.3443644274138289
aF-1.8216979387993675
aF-1.8971436358487925
aF-1.663600507078994
aF-1.755525576923654
aF-1.7759317668500478
aF-1.8493528250462647
aF-2.0060196963858354
aF-1.9006566611312325
aF-1.8829988506181676
aF-1.8025362416836597
aF-1.986204381318365
aF-2.1197083929339557
aF-1.9948119502319923
aF-1.7118080534665576
aF-1.7290197741710975
aF-2.0230699203089952
aF-1.67421505135285
aF-1.7243251297913853
aF-1.7475557421872667
aF-1.758251668954039
aF-1.8036183455851715
aF-1.781377546578001
aF-2.014903851148286
aF-2.131180088639764
aF-2.2303167692956367
aF-2.044279305660458
aF-2.0035563665398284
aF-2.1275258177950547
aF-2.1509490312884716
aF-2.129594172145982
aF-2.0576522565062203
aF-2.1746053454050953
aF-2.183041508547589
aF-2.152419073350628
aF-2.101978708371766
aF-1.9132471661798063
aF-2.0773301947512017
aF-2.212012999854746
aF-1.9489083837122148
aF-1.9351526963827856
aF-2.0090736723294826
aF-1.9666595747661986
aF-1.5427945874552833
aF-1.7399076619505298
aF-1.3966195401662678
aF-1.254790397552519
aF-1.2809861271029883
aF-1.5867753146563224
aF-0.9885940907081917
aF-1.0761106028834362
aF-1.746886198927371
aF-1.2264190245440418
aF-1.4371138783660442
aF-1.0124359720167797
aF-1.4701109184843695
aF-1.3598969489270045
aF-1.1865682470962322
aF-1.3467963054388157
aF-1.285596334282187
aF-1.5424707586476372
aF-1.3287261969151964
aF-1.5154309141272921
aF-1.3727887282655116
aF-1.5279584668931536
aF-1.571023908323981
aF-1.4644217542199653
aF-1.6048617492657906
aF-1.667110411570123
aF-1.4767802864173232
aF-1.9074950755657407
aF-1.8115030981069065
aF-1.6895814624072676
aF-1.7111206326258643
aF-1.618572397943623
aF-1.7965760676535767
aF-1.829617646630873
aF-1.5284398620120165
aF-2.034759030348072
aF-1.8660083084736505
aF-1.4694764226245385
aF-1.648293385687143
aF-1.2271491872959785
aF-1.3892568402707484
aF-1.4199584617560075
aF-1.5056356176787349
aF-1.5394381786036369
aF-1.723147232652567
aF-1.274167793015703
aF-1.8396806128546508
aF-1.3095528346469745
aF-1.436041644462764
aF-1.5992727736092505
aF-1.549166956278671
aF-1.4380636588960298
aF-1.8139423760778837
aF-1.5280025963907842
aF-1.5983369642590752
aF-1.5777416702893825
aa(lp15
F0.1027035117149353
aF0.16952168941497803
aF0.23922555148601532
aF0.3293617367744446
aF0.45533159375190735
aF0.5655032396316528
aF0.6655157208442688
aF0.7619597911834717
aF0.8638635277748108
aF0.9393962621688843
aF1.0180481672286987
aF1.3052316904067993
aF1.3110402822494507
aF1.2926603555679321
aF1.178861379623413
aF1.067480444908142
aF0.905775249004364
aF0.79673832654953
aF0.7757058143615723
aF0.8031879663467407
aF0.9130610823631287
aF0.9887253046035767
aF1.033806324005127
aF1.0605733394622803
aF1.0676555633544922
aF1.1069667339324951
aF1.1305333375930786
aF1.1360490322113037
aF1.1007424592971802
aF1.109715461730957
aF1.0977108478546143
aF1.114176630973816
aF1.1023378372192383
aF1.0493823289871216
aF1.0130650997161865
aF0.9837459921836853
aF0.9557115435600281
aF0.9483932256698608
aF0.9233038425445557
aF0.8952200412750244
aF0.8298550844192505
aF0.7994625568389893
aF0.767682671546936
aF0.7613004446029663
aF0.7608354687690735
aF0.7454167008399963
aF0.7426711916923523
aF0.7536209225654602
aF0.7714833617210388
aF0.7671747207641602
aF0.7637051939964294
aF0.7755029797554016
aF0.784954845905304
aF0.7970879673957825
aF0.7699337601661682
aF0.784381091594696
aF0.8109265565872192
aF0.8123354315757751
aF0.8002420663833618
aF0.8149110078811646
aF0.864608645439148
aF0.9193333983421326
aF0.9955499768257141
aF1.082637071609497
aF1.197536826133728
aF1.27018404006958
aF1.3836177587509155
aF1.4567912817001343
aF1.4890450239181519
aF1.5455578565597534
aF1.620501160621643
aF1.666910171508789
aF1.710989236831665
aF1.7422341108322144
aF1.7750040292739868
aF1.769971251487732
aF1.8016165494918823
aF1.8200030326843262
aF1.8420757055282593
aF1.8450442552566528
aF1.85939621925354
aF1.8769512176513672
aF1.853920578956604
aF1.8411519527435303
aF1.846653938293457
aF1.8494011163711548
aF1.8441720008850098
aF1.8433729410171509
aF1.8527002334594727
aF1.8422132730484009
aF1.8333040475845337
aF1.8195511102676392
aF1.8177299499511719
aF1.8457082509994507
aF1.8739666938781738
aF1.926544189453125
aF1.9828708171844482
aF1.9955039024353027
aF2.0322823524475098
aF2.0696475505828857
aF2.089008331298828
aF2.106954336166382
aF2.1287834644317627
aF2.1588943004608154
aF2.1729648113250732
aF2.199009895324707
aF2.2173526287078857
aF2.231402635574341
aF2.244994640350342
aF2.264065742492676
aF2.2726423740386963
aF2.280446767807007
aF2.312910318374634
aF2.314079761505127
aF2.321422815322876
aF2.35040283203125
aF2.356816291809082
aF2.3721072673797607
aF2.410060167312622
aF2.4102041721343994
aF2.470513105392456
aF2.4744811058044434
aF2.4924802780151367
aF2.5148768424987793
aF2.522351026535034
aF2.5599353313446045
aF2.5789425373077393
aF2.5890262126922607
aF2.6080398559570312
aF2.63757061958313
aF2.654533863067627
aF2.6801257133483887
aF2.713348865509033
aF2.722764015197754
aF2.7478740215301514
aF2.7864274978637695
aF2.7873740196228027
aF2.814178228378296
aF2.8681414127349854
aF2.896435260772705
aF2.955709934234619
aF2.9876248836517334
aF3.029433012008667
aF3.040501594543457
aF3.0545363426208496
aF3.078914165496826
aF3.1068592071533203
aF3.128335952758789
aF3.1436872482299805
aF3.160883903503418
aF3.241344451904297
aF3.2621004581451416
aF3.2685627937316895
aF3.280531167984009
aF3.299924850463867
aF3.3250246047973633
aF3.3303635120391846
aF3.3329100608825684
aF3.324065685272217
aF3.338688611984253
aF3.341869831085205
aF3.329226493835449
aF3.332531452178955
aF3.334073305130005
aF3.33626651763916
aF3.3329412937164307
aF3.329225540161133
aF3.330368757247925
aF3.353093147277832
aF3.3476719856262207
aF3.35339617729187
aF3.3678219318389893
aF3.358842372894287
aF3.3577115535736084
aF3.3657169342041016
aF3.3788866996765137
aF3.396014451980591
aF3.3805861473083496
aF3.3973567485809326
aF3.3893048763275146
aF3.4044437408447266
aF3.388662576675415
aF3.394453287124634
aF3.437121629714966
aF3.4292948246002197
aF3.439666986465454
aF3.452815532684326
aF3.473897695541382
aF3.483926296234131
aF3.487515687942505
aF3.4825193881988525
aF3.4660353660583496
aF3.475417375564575
aF3.476266860961914
aF3.4750587940216064
aF3.4829647541046143
aF3.507530689239502
aF3.497343063354492
aF3.4577620029449463
aF3.4725615978240967
aF3.242593765258789
aF3.1275393962860107
aF3.04012393951416
aF2.901383876800537
aF2.7656447887420654
aF2.5750439167022705
aF2.4406309127807617
aF2.3008081912994385
aF2.1899173259735107
aF2.152728319168091
aF2.1445205211639404
aF2.159754514694214
aF2.181502342224121
aF2.1987907886505127
aF2.2107253074645996
aF2.1970653533935547
aF2.218066930770874
aF2.238447427749634
aF2.234467029571533
aF2.2649857997894287
aF2.3245160579681396
aF2.3489573001861572
aF2.3598718643188477
aF2.3779311180114746
aF2.3964366912841797
aF2.4160702228546143
aF2.4513957500457764
aF2.484057664871216
aF2.515519618988037
aF2.547250509262085
aF2.5558969974517822
aF2.5771589279174805
aF2.614351272583008
aF2.621861696243286
aF2.630599021911621
aF2.620067596435547
aF2.630265712738037
aF2.645498514175415
aF2.6409671306610107
aF2.642531156539917
aF2.6638293266296387
aF2.6687560081481934
aF2.672835111618042
aF2.689643383026123
aF2.6821811199188232
aF2.708740711212158
aF2.718626022338867
aF2.743379592895508
aF2.761971950531006
aF2.8102943897247314
aF2.8457765579223633
aF2.8834779262542725
aF2.9096851348876953
aF2.929428815841675
aF2.9379384517669678
aF2.9632158279418945
aF2.9845120906829834
aF2.992912769317627
aF3.0312154293060303
aaa(lp16
(lp17
F-0.011983333851655231
aF-0.00035055287722573895
aF8.904575441457314e-05
aF0.0003187471136398421
aF0.000769266469744467
aF0.0017506324690995533
aF0.003034308264820774
aF0.004340016484432496
aF0.006947680864360285
aF0.010975129374505808
aF0.013656793408791584
aF0.018314396326401597
aF0.06696926319479866
aF0.07650935949758843
aF0.08570803399169467
aF0.11382313006173346
aF0.10840787746011403
aF0.09444496161055492
aF0.08611522413687642
aF0.08735553298024731
aF0.10574359428861559
aF0.1269462964870764
aF0.13547632899837397
aF0.13779726446046134
aF0.1569278633752544
aF0.17182620175365834
aF0.1697886296095907
aF0.18061458619680087
aF0.20852615269181396
aF0.24166671404534987
aF0.45293496803669003
aF0.5045378794240837
aF0.46517520754172026
aF0.44973097765223474
aF0.4359118758442187
aF0.42141608011108755
aF0.40872075533432367
aF0.4414975843829989
aF0.4325236670970016
aF0.4197504798998828
aF0.3642521448939906
aF0.3806525014098949
aF0.38001265358390846
aF0.3432851709324135
aF0.3513892064018912
aF0.34037366220876325
aF0.326371687507583
aF0.3501003080965789
aF0.3365157262243943
aF0.33978313028593615
aF0.2984956090046553
aF0.34513392759737616
aF0.3645415197890237
aF0.33689822706883193
aF0.36796419897276195
aF0.34328812902792694
aF0.29193131958715235
aF0.36040394388210995
aF0.3318050603779219
aF0.3198917018655209
aF0.3381690225046218
aF0.33898856260017446
aF0.35611489684873066
aF0.3333157889680446
aF0.44975638432224246
aF0.46552147404388444
aF0.4212913136025575
aF0.5797470024892196
aF0.5705943189750332
aF0.42161428306538284
aF0.6191221414584346
aF0.6692644810322761
aF0.6551201089312887
aF0.6693109643502044
aF0.6348104679009117
aF0.69197376567869
aF0.556014670510318
aF0.6312016293316189
aF0.6328377475075845
aF0.6883145368895407
aF0.6866546035218131
aF0.6191860550701302
aF0.655085378707484
aF0.5920880467963374
aF0.6707280763642345
aF0.6995447260127727
aF0.7046031242175348
aF0.6566842772473559
aF0.5724542570730123
aF0.7112217345413462
aF0.5500952883173583
aF0.6325355715726396
aF0.6808553966507487
aF0.6363721159193785
aF0.6815333477779792
aF0.7220493532333506
aF0.6318772176720802
aF0.6984942036537019
aF0.6807822500309955
aF0.6948862956086934
aF0.7792717152463676
aF0.6975007374081962
aF0.6024005730101208
aF0.8041895600269418
aF0.6550808750136486
aF0.6910642726635777
aF0.6650598119373938
aF0.7854493108948798
aF0.6285248315164942
aF0.6842590374772805
aF0.7292538909832207
aF0.6408620069816281
aF0.6128955528298703
aF0.7828984551718119
aF0.7571999697751454
aF0.4962418755110626
aF0.6415066701923237
aF0.7041194553713512
aF0.7361372015470982
aF0.7029338422059204
aF0.8380867298906323
aF0.599745358143474
aF0.7591455044748643
aF0.8168851950322802
aF0.6231547012660295
aF0.8912169180603637
aF0.7086521998291831
aF0.7618936395990151
aF0.7881099516249237
aF0.7313603089298796
aF0.8493330799607542
aF0.901886590517443
aF0.8666463880452205
aF0.9673412709750593
aF0.9738074042910666
aF0.9905198973950188
aF0.9899534292959665
aF1.0654414922442619
aF1.0345886192601899
aF1.1145646586198816
aF1.16294010483412
aF0.9884936893237559
aF1.2162811450633448
aF1.110191578353129
aF1.1585983449261492
aF1.0338046129197085
aF1.221900043415691
aF1.149987877811398
aF1.1746236928022455
aF1.2262842704023624
aF1.0383696674128993
aF1.2379295665498224
aF1.1912046515885253
aF1.2596779385864245
aF1.3333216852650107
aF1.312235987235541
aF1.3811383233560686
aF1.3156440991572198
aF1.3555666706092488
aF1.2916877590518399
aF1.327081197034375
aF1.0986079923383314
aF1.2911547420831435
aF1.2232470050288624
aF1.2665019502126968
aF1.2203163674116193
aF1.2825271329521533
aF1.2062187828493893
aF1.1999718327075335
aF1.2369615639368754
aF1.2152039290650447
aF1.2902339892590586
aF1.163117300278176
aF1.1553933263864482
aF1.1461458893678298
aF1.0628824150932055
aF1.1410540201673807
aF1.2271858347152207
aF1.2345063188486454
aF1.2833956202870451
aF1.2376446494547475
aF1.2892672652331059
aF1.2528967625714553
aF1.0602101142553222
aF1.0856938241405933
aF1.2406475919460573
aF1.15257717312291
aF1.2610158893222996
aF1.104389790500797
aF1.1933784627530184
aF1.0864019093370378
aF1.2863384188493991
aF1.1810407997208388
aF1.2705066475201254
aF1.1131838420414724
aF1.2496960916172035
aF1.1571025273754563
aF1.0920798965326879
aF1.2484585498554106
aF1.1670533820894846
aF1.1402695796351356
aF1.1268070588351924
aF1.1010069405230167
aF1.123544610731465
aF0.9956399569857816
aF1.0090124197538808
aF0.8087481217791342
aF0.888958196144078
aF0.8598716863149631
aF0.7577637398315072
aF0.6449106486802948
aF0.781307322671962
aF0.7760800957221892
aF0.6754015452738924
aF0.8038903536360527
aF0.6227740589747232
aF0.7507060493761142
aF0.6642532390768874
aF0.7697799884034915
aF0.7798191755187879
aF0.7665888286455086
aF0.7646990431734889
aF0.7823135942786155
aF0.8107866323876501
aF0.7343198936834717
aF0.8244261825857669
aF0.8476954289529899
aF0.7595343007591496
aF0.8991858367651665
aF0.8153877836028087
aF0.8522766921618947
aF0.8707567108081989
aF0.6788772667751489
aF0.8311548136015293
aF0.9029373140202951
aF0.8025681887804881
aF0.8805010257094711
aF0.899711513793612
aF0.8991585538311353
aF1.4532896271976177
aF1.0351498343411842
aF0.8516387519549861
aF0.9335722881691356
aF0.8727442502102957
aF0.9900231467335949
aF0.9457206493768002
aF0.9816611715694997
aF0.8784342311542087
aF1.0369538855003504
aF0.8570993554597571
aF1.1248854273066287
aF0.9936287811545345
aF1.1042395040537525
aF1.0616051513115867
aF1.0449809099274916
aF1.0913701864759975
aF1.0348431984570257
aF1.0520324597396262
aF1.0229168355094702
aF1.1249072595165797
aa(lp18
F0.0
aF0.0
aF0.0
aF0.0
aF0.0
aF0.0
aF0.0
aF0.0
aF0.0
aF0.0
aF0.0
aF0.0
aF0.0
aF0.0
aF0.0
aF0.0
aF0.0
aF0.0
aF0.0
aF0.0
aF0.0
aF0.0
aF0.0
aF0.0
aF0.0
aF0.0
aF0.0
aF0.0
aF0.0
aF0.0
aF0.0
aF0.0
aF0.0
aF0.0
aF0.0
aF0.0
aF0.0
aF0.0
aF0.0
aF0.0
aF0.0
aF0.0
aF0.0
aF0.0
aF0.0
aF0.0
aF0.0
aF0.0
aF0.0
aF0.0
aF0.0
aF0.0
aF0.0
aF0.0
aF0.0
aF0.0
aF0.0
aF0.0
aF0.0
aF0.0
aF0.0
aF0.0
aF0.0
aF0.0
aF0.0
aF0.0
aF0.0
aF0.0
aF0.0
aF0.0
aF0.0
aF0.0
aF0.0
aF0.0
aF0.0
aF0.0
aF0.0
aF0.0
aF0.0
aF0.0
aF0.0
aF0.0
aF0.0
aF0.0
aF0.0
aF0.0
aF0.0
aF0.0
aF0.0
aF0.0
aF0.0
aF0.0
aF0.0
aF0.0
aF0.0
aF0.0
aF0.0
aF0.0
aF0.0
aF0.0
aF0.0
aF0.0
aF0.0
aF0.0
aF0.0
aF0.0
aF0.0
aF0.0
aF0.0
aF0.0
aF0.0
aF0.0
aF0.0
aF0.0
aF0.0
aF0.0
aF0.0
aF0.0
aF0.0
aF0.0
aF0.0
aF0.0
aF0.0
aF0.0
aF0.0
aF0.0
aF0.0
aF0.0
aF0.0
aF0.0
aF0.0
aF0.0
aF0.0
aF0.0
aF0.0
aF0.0
aF0.0
aF0.0
aF0.0
aF0.0
aF0.0
aF0.0
aF0.0
aF0.0
aF0.0
aF0.0
aF0.0
aF0.0
aF0.0
aF0.0
aF0.0
aF0.0
aF0.0
aF0.0
aF0.0
aF0.0
aF0.0
aF0.0
aF0.0
aF0.0
aF0.0
aF0.0
aF0.0
aF0.0
aF0.0
aF0.0
aF0.0
aF0.0
aF0.0
aF0.0
aF0.0
aF0.0
aF0.0
aF0.0
aF0.0
aF0.0
aF0.0
aF0.0
aF0.0
aF0.0
aF0.0
aF0.0
aF0.0
aF0.0
aF0.0
aF0.0
aF0.0
aF0.0
aF0.0
aF0.0
aF0.0
aF0.0
aF0.0
aF0.0
aF0.0
aF0.0
aF0.0
aF0.0
aF0.0
aF0.0
aF0.0
aF0.0
aF0.0
aF0.0
aF0.0
aF0.0
aF0.0
aF0.0
aF0.0
aF0.0
aF0.0
aF0.0
aF0.0
aF0.0
aF0.0
aF0.0
aF0.0
aF0.0
aF0.0
aF0.0
aF0.0
aF0.0
aF0.0
aF0.0
aF0.0
aF0.0
aF0.0
aF0.0
aF0.0
aF0.0
aF0.0
aF0.0
aF0.0
aF0.0
aF0.0
aF0.0
aF0.0
aF0.0
aF0.0
aF0.0
aF0.0
aF0.0
aF0.0
aF0.0
aF0.0
aF0.0
aF0.0
aF0.0
aF0.0
aF0.0
aF0.0
aF0.0
aF0.0
aF0.0
aF0.0
aF0.0
aF0.0
aF0.0
aF0.0
aF0.0
aa(lp19
F0.00013029591115433687
aF0.000301581845970444
aF0.0008411524809515256
aF0.0013698074262717237
aF0.0031489228648704953
aF0.0058688033798934
aF0.009563110348983777
aF0.013631356677330054
aF0.021307599107875937
aF0.03176260418646132
aF0.04295189121942714
aF0.13594171586105433
aF0.16351600564501043
aF0.1913102087185689
aF0.2649553682157064
aF0.2587439166095339
aF0.23102701751324345
aF0.19630191555320914
aF0.1917786256190743
aF0.20392273452411744
aF0.2716502347125423
aF0.3084766671985197
aF0.33337062032885084
aF0.36114298802564476
aF0.38207832909757933
aF0.42561524305405707
aF0.4530225789405892
aF0.4769792674985432
aF0.5374322653423215
aF0.6160898603940436
aF1.0869160977235388
aF1.0346809402371888
aF1.035199207842855
aF0.9577009667066189
aF0.9781463049894437
aF0.9363354689177601
aF0.9366288024879498
aF0.9618346204380309
aF0.9531152400427538
aF0.9435234147996934
aF0.8786746509981376
aF0.8375120629516581
aF0.77329677289361
aF0.7814297752761341
aF0.79325198825019
aF0.7577198621017326
aF0.7488675001755537
aF0.7851300726840306
aF0.8011034967611574
aF0.7757638356406279
aF0.7775348464215103
aF0.8004503874124868
aF0.8018664434270516
aF0.8280504922429152
aF0.756869134304355
aF0.7952588272294616
aF0.8440076311433417
aF0.7795506546490143
aF0.6907621070920295
aF0.7891007369999045
aF0.7728656643312127
aF0.8326755683975302
aF0.9644125528849966
aF0.9713775281520795
aF1.0838715169943298
aF1.1551683687316425
aF1.3115068439047626
aF1.1764788644777917
aF1.060156977978412
aF1.3948538217973088
aF1.4554562875186579
aF1.553843268593527
aF1.501696641232416
aF1.2541585638951145
aF1.5868291461858761
aF1.477454295159894
aF1.3808465927659364
aF1.4502775506082772
aF1.4444950168871964
aF1.5747220629560008
aF1.4412675060351263
aF1.7053120106316455
aF1.4377730728196247
aF1.625387409738872
aF1.614674418101072
aF1.6031336957101616
aF1.556178641453254
aF1.1656509004311757
aF1.6671387563777662
aF1.2672641155182487
aF1.3645289843496375
aF1.550742169755076
aF1.3440562479415472
aF1.5445719298087697
aF1.5833279839047114
aF1.317569224740263
aF1.6152677601397316
aF1.7060803020629856
aF1.6929511594340447
aF1.6034556437810767
aF1.4934977112926942
aF1.4359245299545278
aF1.7417661519980556
aF1.2501127523265037
aF1.7686051926048905
aF1.680904149243869
aF1.7670675234129674
aF1.294702101723324
aF1.6545865685123895
aF1.833425744423714
aF1.347486337397973
aF1.8243452360733303
aF1.1412662432719256
aF1.9940069603353758
aF0.7821932863839106
aF1.63050860932986
aF1.1511909935038094
aF1.8955454194140056
aF1.584575507868193
aF1.0552373675895506
aF1.3938871819471161
aF1.4531731279199422
aF1.930684765660795
aF1.4903308829743072
aF1.9462537528498471
aF1.5673522552590944
aF1.6389587270481918
aF1.798889194001491
aF1.5990824055989956
aF1.963535274056691
aF2.018080245996523
aF2.0571481762115025
aF2.138311223186988
aF2.045192992917375
aF2.3150941479514313
aF2.294985422119084
aF2.279086814530977
aF2.290019098045596
aF2.5708597594546885
aF2.415476816164581
aF2.4245300307038393
aF2.5557893237046048
aF2.5657442456602904
aF2.5709440933461725
aF2.6088029972058315
aF2.588265293994898
aF2.673521371114684
aF2.481314611702833
aF2.7952120580725976
aF2.452132902115121
aF2.9127588365429595
aF2.70562438546917
aF2.991156285413924
aF3.0819031212274095
aF2.822495857692732
aF3.1601891742115344
aF2.960754549178794
aF3.160108015842961
aF3.0054110531867066
aF2.5399115085131405
aF2.7327087662327165
aF3.0724018671245594
aF2.787634056056765
aF2.7654683096655828
aF2.8983654945816175
aF2.774163672441342
aF2.7518018596486318
aF2.7172684876093594
aF2.6728213866711914
aF2.7104620436903204
aF2.7561155541497384
aF2.8605881047756014
aF2.6336724233912863
aF2.5530371610822904
aF2.686089514734144
aF2.9021176652689293
aF2.9193144510192304
aF2.694394524289252
aF2.973640100740997
aF2.885552375644001
aF2.87154289429274
aF2.869612753970086
aF2.790018035030484
aF2.9520660632378926
aF2.720079872798139
aF2.6551949630257554
aF2.53599059992289
aF2.7911109133715724
aF2.7963662314782107
aF2.7580066467830333
aF2.679611510592875
aF2.701616345156321
aF2.7568042015617995
aF2.6553755639505727
aF2.678908534833934
aF2.6531945265859793
aF2.8168240637048387
aF2.8683593370214386
aF2.7518537873855253
aF2.70087792840254
aF2.583102681605652
aF2.484793496574785
aF2.2808174285705687
aF2.128695628616025
aF2.289346724897588
aF1.931578414959896
aF2.0278060550072596
aF2.0081854747140664
aF1.7194178120592218
aF1.4883461567089273
aF1.8804760652896182
aF1.8681455746951663
aF1.2768309612757618
aF1.8159075786312533
aF1.690430183451928
aF1.9566212049076923
aF1.624930104726669
aF1.7531488222100933
aF1.8328451051708283
aF1.7878774798027182
aF1.9180847326850115
aF1.749845288336034
aF1.8932629233017708
aF1.8450346165175873
aF1.958290677250018
aF1.8295599690124917
aF1.8446102296315925
aF1.994032609323914
aF1.9646771755262533
aF1.8964826620555253
aF2.028778784829128
aF1.702059655194115
aF1.9027374120894955
aF2.0475493096786974
aF2.0089943820024354
aF2.0493631423034073
aF1.9222165950542256
aF1.9234455960106847
aF2.165682607456639
aF1.6680401354836834
aF1.8881624186759365
aF2.1919469176204687
aF2.0859382086764957
aF2.4070030726214466
aF2.2574930785693312
aF2.280053726812374
aF2.2386192329541954
aF2.258413875725048
aF2.1165102829860505
aF2.5240593834018608
aF2.1728721092744254
aF2.5677550386620798
aF2.539896417386856
aF2.463855013617352
aF2.4771561467845107
aF2.5477747168404723
aF2.320359905987852
aF2.531639701513508
aF2.5250926323750913
aF2.54725520624593
aa(lp20
F1.990597825256965e-21
aF-2.9507450474811854e-19
aF3.705907180002284e-19
aF-2.8162094199752347e-20
aF7.675832316955594e-19
aF2.645120034965712e-21
aF1.1245015847484754e-18
aF1.3097487863273025e-18
aF-1.4413056588992674e-18
aF-2.217750386024228e-21
aF1.0758010547657774e-20
aF2.2478523544697364e-18
aF2.208401629515245e-18
aF2.0264893051267404e-21
aF2.0679418120103717e-18
aF1.9448726397038134e-18
aF1.6318511590966498e-18
aF1.327628088472483e-18
aF-2.9797384226536366e-22
aF-2.0383389551780208e-22
aF8.576419399827215e-23
aF-3.4601976251391994e-18
aF3.5166781377497795e-18
aF5.273981709783691e-22
aF4.017742301453597e-22
aF-3.895982221226277e-18
aF7.850757958850985e-18
aF7.902996896075546e-18
aF8.05978153655946e-18
aF8.11489740795448e-18
aF5.340530268183626e-22
aF2.7447248187896358e-21
aF-1.050940440339116e-21
aF2.3858305784381622e-20
aF4.073942065006088e-21
aF1.3647810090828789e-17
aF-1.2020124180319604e-20
aF2.5384204002432988e-21
aF1.517765049496763e-21
aF-5.363819461589667e-22
aF1.214233850023718e-20
aF-3.2206184253491934e-22
aF-1.427846215411505e-21
aF-2.9238423389952194e-21
aF1.3587843890815698e-20
aF-2.1775683106236173e-20
aF1.3525450723498332e-20
aF5.340416571239078e-21
aF-9.655078291917684e-21
aF1.4594291667332586e-20
aF-6.378485830830863e-21
aF1.3554717892222364e-20
aF-5.6748778430782315e-21
aF1.5707251872412748e-20
aF1.0341685814920707e-17
aF3.5656266538951815e-21
aF-5.891034738814854e-18
aF3.485378572932111e-22
aF-8.414147556179632e-23
aF1.7878750260615617e-19
aF-1.8092340330900956e-21
aF3.83402939510695e-21
aF6.402182556091429e-22
aF-1.4530842107978046e-21
aF-1.0055877542490772e-18
aF1.0814835400047723e-18
aF-1.1992555510661176e-18
aF-4.212171081714992e-23
aF-5.083548415343932e-22
aF-1.33034506659199e-18
aF1.368208018360686e-18
aF7.185780019794093e-19
aF-7.219614808774809e-19
aF2.390732966524344e-22
aF-3.1070738256195157e-23
aF-4.79105078742245e-20
aF-4.914355305537977e-20
aF1.9669249904911416e-19
aF2.0191357260266937e-19
aF3.5246652344073105e-23
aF-8.733471981953675e-24
aF5.2310089221794475e-23
aF3.4852430150741577e-22
aF7.837911120155e-19
aF4.037043605831629e-19
aF2.1882559748723944e-22
aF-1.3720652991343627e-23
aF1.1391456918333912e-22
aF-1.0777453028098017e-22
aF3.9685763155669663e-19
aF-6.710750737205038e-23
aF3.9338996118190363e-19
aF4.8737181192417487e-20
aF-5.266764200480771e-23
aF-1.3805670108821106e-23
aF-5.937139459915035e-23
aF8.617122495010312e-19
aF8.6841846122094e-19
aF-1.7449805155724646e-18
aF1.7984724246298907e-18
aF1.7990450404089305e-18
aF-1.819012146420195e-18
aF-1.8153783419892495e-18
aF-1.845658735877825e-18
aF3.3303985808391564e-22
aF1.8861589462344932e-18
aF-3.1363910523011493e-22
aF-6.004003234510921e-20
aF-2.4443936733372094e-19
aF-5.245866012924018e-23
aF2.4437908654658114e-19
aF9.74776207009666e-19
aF9.910657714150963e-19
aF-1.0047239708944187e-18
aF-6.082202381801312e-24
aF-5.007115016312247e-19
aF2.54628914161273e-19
aF-6.368467413454881e-20
aF-6.514623765344466e-20
aF-6.514289015690323e-20
aF-1.328740672245761e-19
aF-2.6737889517740636e-19
aF-5.291031319886119e-19
aF-3.633484809750204e-23
aF-1.0727422054840417e-18
aF-6.304662687463794e-22
aF2.0096605165029988e-22
aF-5.809106072820217e-23
aF-9.132325893204117e-23
aF5.771824881053738e-19
aF-3.735131935525083e-22
aF8.883218292148158e-24
aF-1.4815700452331756e-19
aF1.3043495579162816e-24
aF1.4733962083114445e-19
aF-2.942817405149623e-24
aF7.514544246723001e-20
aF-7.461225347660569e-20
aF3.058069405514468e-19
aF-6.35145670265167e-19
aF2.719854823860178e-22
aF7.286827457295355e-23
aF6.328974244603002e-24
aF3.879322109037478e-24
aF-1.3282731859526979e-18
aF1.2927903001859876e-22
aF-2.610039579837151e-22
aF2.7311036760324034e-18
aF-5.764878112852457e-23
aF2.5316827834280168e-23
aF3.260834491188488e-23
aF6.856413745581917e-24
aF3.5509235185070514e-19
aF-8.758624534237608e-20
aF4.612656767525102e-22
aF-7.667787321088307e-23
aF1.4679138878559904e-18
aF9.128427027066153e-23
aF7.955267798701294e-23
aF1.6462633470329082e-22
aF-1.4544912280560924e-18
aF1.427490501898713e-18
aF1.4270863207719043e-18
aF2.3446885123273504e-23
aF4.7836452717398876e-23
aF1.454498776079182e-18
aF-4.08444842693074e-24
aF5.692042648582274e-22
aF-5.110445416768348e-23
aF1.2177633960983181e-23
aF-7.221220573138927e-19
aF-5.807822260861537e-25
aF-3.6017943506972384e-19
aF-1.1856057179552551e-23
aF6.043112509567529e-23
aF-5.938134686833062e-23
aF-5.424899888630099e-23
aF-1.4481759108744032e-18
aF1.5332433082507663e-22
aF7.323357216261795e-19
aF8.049647117401935e-23
aF2.756222258223953e-23
aF-4.983143777049212e-23
aF-7.493276657692438e-19
aF-5.365776657049957e-24
aF-3.7212617201227993e-19
aF-3.746628506076445e-19
aF7.527524519991548e-19
aF3.754596840314745e-19
aF-1.8861190089205434e-19
aF2.3471429110389826e-22
aF3.168429912214668e-22
aF-1.0048166898439296e-22
aF-7.578354251645049e-19
aF-7.409235624444933e-19
aF7.510471157688001e-19
aF1.4777054315619337e-18
aF-2.698435357017255e-23
aF-8.121645505588371e-23
aF-2.6671447158951206e-23
aF1.3931578535868168e-18
aF-1.3624219933734542e-18
aF3.747479724318132e-26
aF-1.1390265235468201e-25
aF7.968298203133734e-24
aF-1.4620424899939454e-22
aF-2.0432032292917946e-23
aF1.0013399750084643e-18
aF-9.8960827200661e-23
aF3.424022991207938e-23
aF3.1925659359695507e-25
aF-4.7004502119174e-19
aF-1.4078544353457382e-22
aF3.777193494120488e-23
aF-1.8826487358348777e-23
aF-4.823686589111458e-23
aF-4.802820533563314e-19
aF2.1625671928104153e-23
aF4.870704144508244e-19
aF-4.887540371900995e-19
aF-2.236527446513699e-22
aF-1.0218223111437727e-18
aF5.059600660154502e-19
aF8.337150314208992e-23
aF-8.254822896873955e-23
aF-5.128894097055952e-19
aF5.27936600529759e-19
aF5.364579567063389e-19
aF-5.449863956169137e-19
aF-5.551715738968557e-19
aF4.565176870470532e-23
aF7.12495256845528e-23
aF1.983050573673384e-24
aF-1.2557477389380019e-24
aF3.650556075283549e-23
aF-1.4220217006763952e-19
aF-3.0539763869499946e-25
aF-3.4270050432018544e-24
aF7.242079361889739e-25
aF-3.8205147472245477e-25
aF5.6163133585218136e-24
aF1.0457885475392985e-22
aF2.2961404702935913e-18
aF-3.472894186463828e-23
aF-2.302558151076084e-18
aF-2.3364622164331012e-18
aF-4.759198598504833e-22
aF2.37751994652263e-18
aF2.391051587368232e-18
aF6.673669383722039e-24
aF5.388195137343252e-23
aF-1.263608548361518e-18
aF-2.495504675681495e-24
aF-3.2101664651658317e-19
aF2.607163676966641e-23
aF3.2355479852741385e-19
aF-8.110917557684152e-20
aF-3.269656519338821e-19
aF3.2953820948831617e-19
aaa(lp21
(lp22
F0.0004733125771417874
aF0.0015636393832204288
aF0.003686939620653009
aF0.004487088853695239
aF0.005777527886842898
aF0.008354671331340088
aF0.013917718723880125
aF0.014704119844451427
aF0.019418203058384285
aF0.02040005468699682
aF0.025181434936757712
aF0.031525469434797754
aF0.04608767312359953
aF0.05703813465806895
aF0.059911297484098805
aF0.054291042542102846
aF0.04435797841730261
aF0.038836956071925034
aF0.03612086953996374
aF0.04051224765263974
aF0.04154009938150288
aF0.04946676599603908
aF0.05606740199283396
aF0.06387371531895789
aF0.06851561945790102
aF0.07597466551000125
aF0.09138194659364367
aF0.10990539345632325
aF0.17223028018274533
aF0.21409552686289246
aF0.2359728871818243
aF0.23662313055270112
aF0.23127433362880528
aF0.22036817525783226
aF0.20775497582082345
aF0.20086894829474553
aF0.19883201676918952
aF0.20812669208836185
aF0.206772788758127
aF0.222834379420353
aF0.22258485084670798
aF0.1964547835305023
aF0.185815858063832
aF0.18107649595775518
aF0.17916969252629963
aF0.17876020483904476
aF0.17452809584068085
aF0.17662706079202098
aF0.178695303738407
aF0.17759990512688453
aF0.18153297728403797
aF0.17954339240224765
aF0.1846984441020179
aF0.18264624782997735
aF0.1817171518704453
aF0.17699545679932727
aF0.16792767876378595
aF0.13091893692528433
aF0.06659305150249246
aF0.03526093218238229
aF-0.010144928154214613
aF-0.017293469702305424
aF-0.016655327027461603
aF-0.018862660940307717
aF-0.022082356396574805
aF-0.02233685319340045
aF-0.025350345303026597
aF-0.027630858448687564
aF-0.02578097007486072
aF-0.02749633911607152
aF-0.026967566944018743
aF-0.024435980093055847
aF-0.022935174636190218
aF-0.015317740122529991
aF-0.013137157020280489
aF-0.008898515689904957
aF-0.0020518765013588687
aF0.0005168546091727025
aF0.0010132852297770917
aF0.005045498818492415
aF0.005182796078888608
aF0.0065200433985200205
aF0.00663963894837836
aF0.007797018233157351
aF0.011600490592977106
aF0.010003605587882476
aF0.012122810026311527
aF0.014167374794388855
aF0.014640284324673158
aF0.012979951898789213
aF0.013898610930865432
aF0.015905515702167992
aF0.01526412844392049
aF0.011000537150284984
aF0.006857214881419725
aF0.0059984276244513576
aF0.002867822614333023
aF0.0011126601530100776
aF-0.0019809726034661804
aF-0.01219415926443093
aF-0.023426100054021026
aF-0.021507153172254864
aF-0.02501735785065573
aF-0.02485936449137654
aF-0.025738700593998968
aF-0.02329125519728974
aF-0.02240103840417098
aF-0.017954325407663674
aF-0.009237425080899208
aF0.003579139839562848
aF0.009234715148073135
aF0.01462652577250072
aF0.025391382029579256
aF0.030670785598896935
aF0.026237243417710936
aF0.025048444318698078
aF0.029122614113601883
aF0.027407739700001304
aF0.016492248299574016
aF0.011903168603377682
aF0.012681005072918625
aF0.011576530131715787
aF0.012217052830713938
aF0.007193305565163411
aF0.005763733366812387
aF-0.006358637496129281
aF-0.013128010041115953
aF-0.01699825347298581
aF-0.011398475659943685
aF-0.00981108386430487
aF-0.007729604647720323
aF0.0010510563692881494
aF0.008917385303837063
aF0.000504490396395794
aF0.007823751639782285
aF0.009884907314345211
aF0.008222421108557216
aF0.010382186978774653
aF0.012605470196956688
aF0.016434197627010462
aF0.018347603747455803
aF0.020918345681027396
aF0.018877998518618124
aF0.015094076656846263
aF0.006789867657598859
aF0.003294266732368996
aF-0.014705583574963599
aF-0.027996008184185142
aF-0.029669702062102055
aF-0.021347987077300224
aF-0.013668613098113555
aF0.023765833415751666
aF0.02382310623841939
aF0.02319261777053972
aF0.023121405180191512
aF0.015716947697556657
aF0.005748340103357941
aF0.0017291101334760955
aF-0.005274055480207573
aF-0.008944856329682161
aF-0.009115423634463328
aF-0.009396365412481539
aF-0.00669657287887475
aF-0.003235704939423041
aF-0.003553638634559199
aF-0.008417789811546198
aF-0.00889995216877021
aF-0.010076411872655728
aF-0.008429952421830833
aF0.0009510049332811012
aF0.011212863757964486
aF0.009461952146324143
aF0.006397255840459518
aF0.009730985442223448
aF0.012412142419224307
aF0.01177449382159344
aF0.005669280736049958
aF-0.0004413451360248285
aF-0.007055166841982023
aF-0.006350111531030849
aF-3.792466460589733e-05
aF0.0031975010091414035
aF0.0008232671707692974
aF-0.002082811206373447
aF0.00031867690776797
aF-0.0004066322563442942
aF0.004982196494081915
aF0.010021753237872001
aF0.015893544824793295
aF0.025134957556375626
aF0.020850389216903725
aF0.012759083866857762
aF0.006369838669491205
aF0.002793858817571155
aF0.0010257203960505968
aF0.00207751414478546
aF-0.0012941944442999855
aF0.001212044718223639
aF-0.0058170590384141185
aF-0.010557298552714655
aF-0.005568887586752656
aF-0.0016937554899285594
aF-0.0005143349213096237
aF-0.004701144238835028
aF-0.014482739369304186
aF-0.02653869998299306
aF-0.03284315092985631
aF-0.025759960945912923
aF-0.018435163537582882
aF-0.01107727665332232
aF-0.0028367651790543965
aF0.0032392478239254307
aF0.0005267785021995953
aF0.0013882267395141444
aF0.0018099947088353581
aF0.002970759244584073
aF0.003375339935991911
aF0.004237159756449489
aF0.0010310062321693542
aF0.0019972765594137385
aF6.428539060894804e-05
aF-0.001483921801280452
aF-0.0025278112775468024
aF0.0007210647103634188
aF0.0020440756610495088
aF0.00262696796503876
aF0.0013863421227483497
aF0.001525981063991825
aF-0.0019095435963778318
aF-0.004906312535521214
aF-0.007603439400494074
aF-0.00945739702471777
aF-0.00882612507980699
aF-0.002430444714138528
aF-0.006672712244640515
aF0.0022489694114884123
aF0.006882982570049194
aF0.010743915749952522
aF0.011516706373740773
aF0.009335276378065716
aF0.014764329950135255
aF0.011892800463574497
aF-0.0013453457598057435
aF-0.015289185409320614
aF-0.023187331532880745
aF-0.02521652275664733
aF-0.034663959684108306
aF-0.032936830830245824
aF-0.03521860448533619
aF-0.03264761760900991
aF-0.02702218496182119
aF-0.015720792450531425
aF-0.011419881350307012
aF-0.00278264033887991
aF0.009077803219829013
aF0.015236042255634
aF0.016297290157992188
aF0.018922251811218573
aF0.013941003198240605
aF0.012075835004521784
aa(lp23
F0.0
aF0.0
aF0.0
aF0.0
aF0.0
aF0.0
aF0.0
aF0.0
aF0.0
aF0.0
aF0.0
aF0.0
aF0.0
aF0.0
aF0.0
aF0.0
aF0.0
aF0.0
aF0.0
aF0.0
aF0.0
aF0.0
aF0.0
aF0.0
aF0.0
aF0.0
aF0.0
aF0.0
aF0.0
aF0.0
aF0.0
aF0.0
aF0.0
aF0.0
aF0.0
aF0.0
aF0.0
aF0.0
aF0.0
aF0.0
aF0.0
aF0.0
aF0.0
aF0.0
aF0.0
aF0.0
aF0.0
aF0.0
aF0.0
aF0.0
aF0.0
aF0.0
aF0.0
aF0.0
aF0.0
aF0.0
aF0.0
aF0.0
aF0.0
aF0.0
aF0.0
aF0.0
aF0.0
aF0.0
aF0.0
aF0.0
aF0.0
aF0.0
aF0.0
aF0.0
aF0.0
aF0.0
aF0.0
aF0.0
aF0.0
aF0.0
aF0.0
aF0.0
aF0.0
aF0.0
aF0.0
aF0.0
aF0.0
aF0.0
aF0.0
aF0.0
aF0.0
aF0.0
aF0.0
aF0.0
aF0.0
aF0.0
aF0.0
aF0.0
aF0.0
aF0.0
aF0.0
aF0.0
aF0.0
aF0.0
aF0.0
aF0.0
aF0.0
aF0.0
aF0.0
aF0.0
aF0.0
aF0.0
aF0.0
aF0.0
aF0.0
aF0.0
aF0.0
aF0.0
aF0.0
aF0.0
aF0.0
aF0.0
aF0.0
aF0.0
aF0.0
aF0.0
aF0.0
aF0.0
aF0.0
aF0.0
aF0.0
aF0.0
aF0.0
aF0.0
aF0.0
aF0.0
aF0.0
aF0.0
aF0.0
aF0.0
aF0.0
aF0.0
aF0.0
aF0.0
aF0.0
aF0.0
aF0.0
aF0.0
aF0.0
aF0.0
aF0.0
aF0.0
aF0.0
aF0.0
aF0.0
aF0.0
aF0.0
aF0.0
aF0.0
aF0.0
aF0.0
aF0.0
aF0.0
aF0.0
aF0.0
aF0.0
aF0.0
aF0.0
aF0.0
aF0.0
aF0.0
aF0.0
aF0.0
aF0.0
aF0.0
aF0.0
aF0.0
aF0.0
aF0.0
aF0.0
aF0.0
aF0.0
aF0.0
aF0.0
aF0.0
aF0.0
aF0.0
aF0.0
aF0.0
aF0.0
aF0.0
aF0.0
aF0.0
aF0.0
aF0.0
aF0.0
aF0.0
aF0.0
aF0.0
aF0.0
aF0.0
aF0.0
aF0.0
aF0.0
aF0.0
aF0.0
aF0.0
aF0.0
aF0.0
aF0.0
aF0.0
aF0.0
aF0.0
aF0.0
aF0.0
aF0.0
aF0.0
aF0.0
aF0.0
aF0.0
aF0.0
aF0.0
aF0.0
aF0.0
aF0.0
aF0.0
aF0.0
aF0.0
aF0.0
aF0.0
aF0.0
aF0.0
aF0.0
aF0.0
aF0.0
aF0.0
aF0.0
aF0.0
aF0.0
aF0.0
aF0.0
aF0.0
aF0.0
aF0.0
aF0.0
aF0.0
aF0.0
aF0.0
aF0.0
aF0.0
aF0.0
aF0.0
aF0.0
aF0.0
aF0.0
aF0.0
aF0.0
aF0.0
aF0.0
aF0.0
aF0.0
aF0.0
aF0.0
aF0.0
aa(lp24
F0.0
aF0.0
aF0.0
aF0.0
aF0.0
aF0.0
aF0.0
aF0.0
aF0.0
aF0.0
aF0.0
aF0.0
aF0.0
aF0.0
aF0.0
aF0.0
aF0.0
aF0.0
aF0.0
aF0.0
aF0.0
aF0.0
aF0.0
aF0.0
aF0.0
aF0.0
aF0.0
aF0.0
aF0.0
aF0.0
aF0.0
aF0.0
aF0.0
aF0.0
aF0.0
aF0.0
aF0.0
aF0.0
aF0.0
aF0.0
aF0.0
aF0.0
aF0.0
aF0.0
aF0.0
aF0.0
aF0.0
aF0.0
aF0.0
aF0.0
aF0.0
aF0.0
aF0.0
aF0.0
aF0.0
aF0.0
aF0.0
aF0.0
aF0.0
aF0.0
aF0.0
aF0.0
aF0.0
aF0.0
aF0.0
aF0.0
aF0.0
aF0.0
aF0.0
aF0.0
aF0.0
aF0.0
aF0.0
aF0.0
aF0.0
aF0.0
aF0.0
aF0.0
aF0.0
aF0.0
aF0.0
aF0.0
aF0.0
aF0.0
aF0.0
aF0.0
aF0.0
aF0.0
aF0.0
aF0.0
aF0.0
aF0.0
aF0.0
aF0.0
aF0.0
aF0.0
aF0.0
aF0.0
aF0.0
aF0.0
aF0.0
aF0.0
aF0.0
aF0.0
aF0.0
aF0.0
aF0.0
aF0.0
aF0.0
aF0.0
aF0.0
aF0.0
aF0.0
aF0.0
aF0.0
aF0.0
aF0.0
aF0.0
aF0.0
aF0.0
aF0.0
aF0.0
aF0.0
aF0.0
aF0.0
aF0.0
aF0.0
aF0.0
aF0.0
aF0.0
aF0.0
aF0.0
aF0.0
aF0.0
aF0.0
aF0.0
aF0.0
aF0.0
aF0.0
aF0.0
aF0.0
aF0.0
aF0.0
aF0.0
aF0.0
aF0.0
aF0.0
aF0.0
aF0.0
aF0.0
aF0.0
aF0.0
aF0.0
aF0.0
aF0.0
aF0.0
aF0.0
aF0.0
aF0.0
aF0.0
aF0.0
aF0.0
aF0.0
aF0.0
aF0.0
aF0.0
aF0.0
aF0.0
aF0.0
aF0.0
aF0.0
aF0.0
aF0.0
aF0.0
aF0.0
aF0.0
aF0.0
aF0.0
aF0.0
aF0.0
aF0.0
aF0.0
aF0.0
aF0.0
aF0.0
aF0.0
aF0.0
aF0.0
aF0.0
aF0.0
aF0.0
aF0.0
aF0.0
aF0.0
aF0.0
aF0.0
aF0.0
aF0.0
aF0.0
aF0.0
aF0.0
aF0.0
aF0.0
aF0.0
aF0.0
aF0.0
aF0.0
aF0.0
aF0.0
aF0.0
aF0.0
aF0.0
aF0.0
aF0.0
aF0.0
aF0.0
aF0.0
aF0.0
aF0.0
aF0.0
aF0.0
aF0.0
aF0.0
aF0.0
aF0.0
aF0.0
aF0.0
aF0.0
aF0.0
aF0.0
aF0.0
aF0.0
aF0.0
aF0.0
aF0.0
aF0.0
aF0.0
aF0.0
aF0.0
aF0.0
aF0.0
aF0.0
aF0.0
aF0.0
aF0.0
aF0.0
aF0.0
aF0.0
aF0.0
aF0.0
aF0.0
aF0.0
aF0.0
aF0.0
aF0.0
aF0.0
aF0.0
aF0.0
aF0.0
aF0.0
aa(lp25
F0.002983367769047618
aF0.004948900081217289
aF0.007773139514029026
aF0.00941549800336361
aF0.013164343312382698
aF0.016139032319188118
aF0.017373306676745415
aF0.02164158597588539
aF0.022448860108852386
aF0.03191510960459709
aF0.0329657606780529
aF0.048765409737825394
aF0.05803447961807251
aF0.06511826068162918
aF0.046793267130851746
aF0.03941422328352928
aF0.03632749617099762
aF0.02981744520366192
aF0.04374728724360466
aF0.041902050375938416
aF0.05734889581799507
aF0.06020522117614746
aF0.05741094425320625
aF0.06890200078487396
aF0.07200678437948227
aF0.09521634876728058
aF0.12157689034938812
aF0.1594913750886917
aF0.20265479385852814
aF0.24214904010295868
aF0.23727703094482422
aF0.22954943776130676
aF0.2184668481349945
aF0.20404037833213806
aF0.20451553165912628
aF0.19995272159576416
aF0.20843499898910522
aF0.20179197192192078
aF0.23350267112255096
aF0.21972064673900604
aF0.19999456405639648
aF0.1916121244430542
aF0.1860165148973465
aF0.18481704592704773
aF0.18248973786830902
aF0.17720137536525726
aF0.1798027902841568
aF0.18145045638084412
aF0.1824977993965149
aF0.1813925802707672
aF0.1867077350616455
aF0.18572792410850525
aF0.18742331862449646
aF0.17999814450740814
aF0.1754002571105957
aF0.1673167198896408
aF0.13393659889698029
aF0.08007117360830307
aF0.04059333726763725
aF0.006119750905781984
aF-0.017191696912050247
aF-0.018847905099391937
aF-0.0203397236764431
aF-0.018935874104499817
aF-0.02263765223324299
aF-0.028535690158605576
aF-0.02296602539718151
aF-0.02735050767660141
aF-0.030487224459648132
aF-0.029088599607348442
aF-0.025582769885659218
aF-0.02140674740076065
aF-0.008582085371017456
aF-0.01388915628194809
aF-0.005648617632687092
aF-0.005193273536860943
aF-0.0023294200655072927
aF-0.004315052181482315
aF0.001956370659172535
aF3.690619269036688e-05
aF0.008099528029561043
aF0.008409477770328522
aF0.00662659527733922
aF0.013874250464141369
aF0.010252737440168858
aF0.011232234537601471
aF0.012999366968870163
aF0.016574326902627945
aF0.00940055213868618
aF0.007833967916667461
aF0.012171979062259197
aF0.016505040228366852
aF0.013299064710736275
aF0.008104048669338226
aF0.011204040609300137
aF0.0037473959382623434
aF0.0014940289547666907
aF-0.007313312962651253
aF-0.010339692234992981
aF-0.020611383020877838
aF-0.018280725926160812
aF-0.02672674134373665
aF-0.022270813584327698
aF-0.017612509429454803
aF-0.02458125166594982
aF-0.024988800287246704
aF-0.014536951668560505
aF-0.007422176189720631
aF-0.001594269648194313
aF0.00808274932205677
aF0.017570558935403824
aF0.029018491506576538
aF0.03504389896988869
aF0.019326122477650642
aF0.0376102589070797
aF0.031146176159381866
aF0.025276590138673782
aF0.020149214193224907
aF0.0062136524356901646
aF0.016907261684536934
aF0.005948882084339857
aF0.013486013747751713
aF0.007011905778199434
aF0.008085643872618675
aF0.0006045068730600178
aF-0.013773757964372635
aF-0.010559135116636753
aF-0.011640915647149086
aF-0.021211545914411545
aF-0.0033232762943953276
aF-0.006734682712703943
aF0.012595947831869125
aF0.0036057764664292336
aF0.0031652662437409163
aF0.014188949950039387
aF0.00502953352406621
aF0.006404418032616377
aF0.014423544518649578
aF0.013434172607958317
aF0.010560930706560612
aF0.023376842960715294
aF0.019100647419691086
aF0.012468868866562843
aF0.01380675844848156
aF0.002730392152443528
aF-0.01736885868012905
aF-0.029515165835618973
aF-0.025069454684853554
aF-0.021647408604621887
aF-0.017545875161886215
aF0.02781941369175911
aF0.01852818951010704
aF0.030545825138688087
aF0.014527276158332825
aF0.016577908769249916
aF-0.00035094181657768786
aF0.008238058537244797
aF0.0011877452488988638
aF-0.0037617101334035397
aF-0.007568024564534426
aF-0.015280203893780708
aF-0.009606877341866493
aF-0.006117945536971092
aF-0.006348470225930214
aF-0.007567116059362888
aF-0.008471287786960602
aF-0.008053326047956944
aF-0.008658895269036293
aF0.00616996455937624
aF0.006544410716742277
aF0.012194056063890457
aF0.0045331683941185474
aF0.004087872803211212
aF0.009715651161968708
aF0.018015608191490173
aF0.006704406347125769
aF-0.001394530525431037
aF-0.012177543714642525
aF-0.009082811884582043
aF0.004099041223526001
aF0.0025630861055105925
aF0.0011400235816836357
aF0.002908698981627822
aF-0.0023357043974101543
aF-0.001053383108228445
aF0.008119859732687473
aF0.0119865657761693
aF0.018848875537514687
aF0.025862956419587135
aF0.022476544603705406
aF0.015984250232577324
aF0.007293556351214647
aF-0.002414855407550931
aF0.004975433927029371
aF0.0012269653379917145
aF-0.0025749308988451958
aF0.003827633336186409
aF-0.005868370179086924
aF-0.010297967121005058
aF-0.00708252377808094
aF-0.003329301020130515
aF-0.0015051787486299872
aF-0.001151591306552291
aF-0.01242760755121708
aF-0.025576915591955185
aF-0.03397326543927193
aF-0.02444247528910637
aF-0.017093494534492493
aF-0.01475807186216116
aF-0.00011490075848996639
aF0.0012510473607107997
aF-0.00019792451348621398
aF0.005391945131123066
aF0.0004414404684212059
aF0.0011503273854032159
aF0.004064076580107212
aF0.0018387330928817391
aF0.0005361869698390365
aF-0.0004364359483588487
aF-0.0038201750721782446
aF-0.003902188967913389
aF0.004882856737822294
aF0.0007285879692062736
aF0.0036740233190357685
aF0.004589592106640339
aF0.002897020895034075
aF-0.00263136881403625
aF-0.0005707056261599064
aF0.006404329556971788
aF-0.0060472264885902405
aF-0.0030657716561108828
aF-0.007197399623692036
aF-0.011679393239319324
aF-0.006459249183535576
aF-0.007921164855360985
aF0.015172534622251987
aF0.01067415438592434
aF0.008019179105758667
aF0.01870271936058998
aF0.014947487972676754
aF0.01299502607434988
aF0.0010255965171381831
aF-0.017339929938316345
aF-0.026493249461054802
aF-0.024305637925863266
aF-0.03255422040820122
aF-0.02899938076734543
aF-0.037423182278871536
aF-0.037639837712049484
aF-0.02366602048277855
aF-0.013579750433564186
aF-0.006758604198694229
aF-0.005829337518662214
aF0.014415562152862549
aF0.017434777691960335
aF0.015501376241445541
aF0.019738901406526566
aF0.013773930259048939
aF0.012300442904233932
aaa(lp26
(lp27
F0.0009479510470087748
aF0.0020237994947470994
aF0.003457707882447161
aF0.004955484177549244
aF0.007289171026811337
aF0.010513866340906498
aF0.01424620767169782
aF0.017773189727431016
aF0.023998727644545408
aF0.031856474584757585
aF0.03786194185667433
aF0.04688605209292067
aF0.12436957674236661
aF0.14298025901491399
aF0.16378293193581547
aF0.22367976241197127
aF0.24166737366872967
aF0.2508930550019399
aF0.2580197753826969
aF0.2689959071150775
aF0.30346481107171563
aF0.3170006002639717
aF0.32761861272713516
aF0.34840787749408036
aF0.3667384951581487
aF0.38145371596702726
aF0.39902028220666885
aF0.42048859435346375
aF0.4655896429188712
aF0.5073654306209796
aF0.5511949214337382
aF0.619211123544923
aF0.6637279328643844
aF0.7277915091191539
aF0.7713459099151563
aF0.832975616871205
aF0.8671959242958459
aF0.9250234532450443
aF0.9673360149146876
aF1.015165149454404
aF1.1498830837942844
aF1.2089898092023144
aF1.2636384495055453
aF1.316387492986847
aF1.3682420966464655
aF1.3990193105557072
aF1.4345305231105492
aF1.470294898923274
aF1.5227516550450086
aF1.5550728608662052
aF1.6073166484312498
aF1.6616568541805505
aF1.6987898449502135
aF1.737600129982813
aF1.7928840780471467
aF1.8239387933689228
aF1.8769713917940656
aF1.9189346024500002
aF1.9444917346364157
aF1.9538489423180248
aF1.956058954490654
aF1.9527109913258667
aF1.9489580880915685
aF1.9454785458977844
aF1.9407346163869352
aF1.9353064324414482
aF1.9316939961192663
aF1.9249240101982013
aF1.9210667433139692
aF1.9147763863846115
aF1.9063276866026972
aF1.8988810393757354
aF1.8947279379260544
aF1.8902632162753337
aF1.886438816919196
aF1.8841991235295368
aF1.884488292123646
aF1.885175695405044
aF1.8851730361331074
aF1.8851287776837542
aF1.8846384451324167
aF1.8840417580369766
aF1.8864252829290267
aF1.8892877576542313
aF1.893301899917199
aF1.894881728559122
aF1.8979534769331605
aF1.9006176917180058
aF1.905054225570301
aF1.9087026124749797
aF1.9118695114459883
aF1.9127033806675293
aF1.9140319703706408
aF1.9165788232831091
aF1.9176416434618182
aF1.9191516931626422
aF1.9206441157091292
aF1.921164793712891
aF1.9185421442019182
aF1.9153065366105488
aF1.9014119360379425
aF1.896373243812868
aF1.8912997777970058
aF1.8839848832619337
aF1.8771618827529455
aF1.8734013883763294
aF1.870701776928984
aF1.8667323312867043
aF1.8645164084687638
aF1.8669604549296177
aF1.8712235533086368
aF1.8725965963808013
aF1.8808839429427018
aF1.8923205589296823
aF1.8995748857337835
aF1.9113080851558941
aF1.9187647053108212
aF1.9264057185786767
aF1.9316595535548085
aF1.9324722114555666
aF1.9415823754917316
aF1.942972606411184
aF1.9448992038966746
aF1.9471221681031774
aF1.9452095163240166
aF1.9447375542782577
aF1.9411823990443493
aF1.938084538415295
aF1.9348107135115087
aF1.9302322318215246
aF1.928543066667921
aF1.9248794742872717
aF1.925523721223244
aF1.9249367122013397
aF1.9255639791677033
aF1.9214793938599477
aF1.9216692134799187
aF1.9221382213726257
aF1.921628412301514
aF1.922411947954705
aF1.9315545374006877
aF1.9321268157040596
aF1.9358298241226632
aF1.9348074296911564
aF1.9386398164736343
aF1.9362805128973686
aF1.9325585611448308
aF1.9251365692595335
aF1.9208359861994069
aF1.9146082900730519
aF1.907561326867106
aF1.9216311789845428
aF1.9242324743548878
aF1.9209153640435148
aF1.925131367585339
aF1.9232774548030918
aF1.9274929529892373
aF1.9211855925084884
aF1.9207145965256294
aF1.9171186096093735
aF1.9196627049042532
aF1.91423537102647
aF1.9152985514365093
aF1.916333564182737
aF1.9155412531310836
aF1.9145018694782003
aF1.9164558312276598
aF1.9135474567362505
aF1.9126122378546444
aF1.9121754470932784
aF1.916187008935862
aF1.9142064397069292
aF1.915133777482127
aF1.9207774412165979
aF1.920111065924094
aF1.920365747933537
aF1.9252273211801787
aF1.9242930498148663
aF1.92398201572272
aF1.9219697979100017
aF1.9161369101950771
aF1.9175079863971647
aF1.9178892846088813
aF1.9204200158995477
aF1.9190554787840957
aF1.9231773532756435
aF1.9237758763575654
aF1.9290614498281387
aF1.9342633635260364
aF1.9337594669139797
aF1.9401318957524019
aF1.9458225820482968
aF1.9437640516297636
aF1.9454762578406433
aF1.9452115028100503
aF1.9491953878590675
aF1.945048127870595
aF1.940782748542973
aF1.9412970121448623
aF1.9398334807043867
aF1.9370782020269297
aF1.937191062680032
aF1.9410216441426575
aF1.93852400969323
aF1.9406756580684996
aF1.9390038494680866
aF1.9341156902305754
aF1.9280815429097922
aF1.927824291424026
aF1.931218675207572
aF1.9376232949628747
aF1.9425601020191536
aF1.9472949282891272
aF1.9520282954206631
aF1.9568755813448853
aF1.9587379440025168
aF1.9638400982996027
aF1.9654203177283287
aF1.9680653399283399
aF1.9701143580902873
aF1.9710320460854338
aF1.9729201008257065
aF1.9730792344489527
aF1.9734373647628471
aF1.9717395033588718
aF1.9734297696487455
aF1.9753686533845034
aF1.9747745958713803
aF1.9742932631016614
aF1.9729798230704696
aF1.9690406090091095
aF1.9662871525781629
aF1.9637287112797321
aF1.9633556975687163
aF1.9588702338232669
aF1.9572560260175424
aF1.956095812951447
aF1.9623794295845396
aF1.963245765208941
aF1.965869238285418
aF1.970871513200502
aF1.973196534960881
aF1.977716747416698
aF1.9739792709606867
aF1.9696282951483715
aF1.960952459623881
aF1.9505316822548961
aF1.9399978668202207
aF1.9323723694608224
aF1.9159207521161474
aF1.9096984513439086
aF1.9008760779914542
aF1.8967319321031573
aF1.8935180547058823
aF1.8953686449785794
aF1.9004866732166847
aF1.9077516433671515
aF1.914505641506527
aF1.9183337234868982
aF1.9213930963931622
aa(lp28
F0.0
aF0.0
aF0.0
aF0.0
aF0.0
aF0.0
aF0.0
aF0.0
aF0.0
aF0.0
aF0.0
aF0.0
aF0.0
aF0.0
aF0.0
aF0.0
aF0.0
aF0.0
aF0.0
aF0.0
aF0.0
aF0.0
aF0.0
aF0.0
aF0.0
aF0.0
aF0.0
aF0.0
aF0.0
aF0.0
aF0.0
aF0.0
aF0.0
aF0.0
aF0.0
aF0.0
aF0.0
aF0.0
aF0.0
aF0.0
aF0.0
aF0.0
aF0.0
aF0.0
aF0.0
aF0.0
aF0.0
aF0.0
aF0.0
aF0.0
aF0.0
aF0.0
aF0.0
aF0.0
aF0.0
aF0.0
aF0.0
aF0.0
aF0.0
aF0.0
aF0.0
aF0.0
aF0.0
aF0.0
aF0.0
aF0.0
aF0.0
aF0.0
aF0.0
aF0.0
aF0.0
aF0.0
aF0.0
aF0.0
aF0.0
aF0.0
aF0.0
aF0.0
aF0.0
aF0.0
aF0.0
aF0.0
aF0.0
aF0.0
aF0.0
aF0.0
aF0.0
aF0.0
aF0.0
aF0.0
aF0.0
aF0.0
aF0.0
aF0.0
aF0.0
aF0.0
aF0.0
aF0.0
aF0.0
aF0.0
aF0.0
aF0.0
aF0.0
aF0.0
aF0.0
aF0.0
aF0.0
aF0.0
aF0.0
aF0.0
aF0.0
aF0.0
aF0.0
aF0.0
aF0.0
aF0.0
aF0.0
aF0.0
aF0.0
aF0.0
aF0.0
aF0.0
aF0.0
aF0.0
aF0.0
aF0.0
aF0.0
aF0.0
aF0.0
aF0.0
aF0.0
aF0.0
aF0.0
aF0.0
aF0.0
aF0.0
aF0.0
aF0.0
aF0.0
aF0.0
aF0.0
aF0.0
aF0.0
aF0.0
aF0.0
aF0.0
aF0.0
aF0.0
aF0.0
aF0.0
aF0.0
aF0.0
aF0.0
aF0.0
aF0.0
aF0.0
aF0.0
aF0.0
aF0.0
aF0.0
aF0.0
aF0.0
aF0.0
aF0.0
aF0.0
aF0.0
aF0.0
aF0.0
aF0.0
aF0.0
aF0.0
aF0.0
aF0.0
aF0.0
aF0.0
aF0.0
aF0.0
aF0.0
aF0.0
aF0.0
aF0.0
aF0.0
aF0.0
aF0.0
aF0.0
aF0.0
aF0.0
aF0.0
aF0.0
aF0.0
aF0.0
aF0.0
aF0.0
aF0.0
aF0.0
aF0.0
aF0.0
aF0.0
aF0.0
aF0.0
aF0.0
aF0.0
aF0.0
aF0.0
aF0.0
aF0.0
aF0.0
aF0.0
aF0.0
aF0.0
aF0.0
aF0.0
aF0.0
aF0.0
aF0.0
aF0.0
aF0.0
aF0.0
aF0.0
aF0.0
aF0.0
aF0.0
aF0.0
aF0.0
aF0.0
aF0.0
aF0.0
aF0.0
aF0.0
aF0.0
aF0.0
aF0.0
aF0.0
aF0.0
aF0.0
aF0.0
aF0.0
aF0.0
aF0.0
aF0.0
aF0.0
aF0.0
aF0.0
aF0.0
aF0.0
aF0.0
aF0.0
aF0.0
aF0.0
aF0.0
aF0.0
aF0.0
aF0.0
aF0.0
aF0.0
aF0.0
aF0.0
aF0.0
aF0.0
aF0.0
aa(lp29
F0.0013824829787590115
aF0.0026481819860070368
aF0.004371396052266161
aF0.005536831325735681
aF0.00826676024035631
aF0.011408480344720069
aF0.015611057211373538
aF0.019393375024444874
aF0.026215251554464317
aF0.034870344816273754
aF0.04240654104182304
aF0.10573738546662075
aF0.13008309390192968
aF0.1481680393467088
aF0.21517019236781634
aF0.23001099496270755
aF0.24556192785431583
aF0.25391498561897313
aF0.2613569632061793
aF0.27241646157455807
aF0.308258662641021
aF0.3170006002639717
aF0.3326069377961807
aF0.3544079144615843
aF0.372991044287218
aF0.3886702258740907
aF0.4106156621595915
aF0.4321605623114468
aF0.48241357225192505
aF0.53638182454106
aF1.3300534000297806
aF1.1251366529997864
aF1.1895694675934279
aF1.316196127920099
aF1.3549510628111952
aF1.253055606181366
aF1.3078557810086404
aF1.3504117962814675
aF1.7574713631516907
aF1.4927435162952414
aF1.5237986851683947
aF1.4882144406638749
aF1.5420132658785666
aF1.56050070246274
aF1.5701772010340518
aF1.5931515073486489
aF1.627080828421003
aF1.5446662314976223
aF1.5733579315320496
aF1.6384809249094
aF1.5757014683678012
aF1.530332711974001
aF1.4820700466332393
aF1.6070528784150226
aF1.6231918844185407
aF1.640220291995214
aF1.6706161528045826
aF1.8581752014842559
aF1.0938251611415462
aF1.2922242861544766
aF1.9396470589708084
aF1.935882741438726
aF1.6778627026173805
aF1.927746257851391
aF1.9224783695437104
aF1.901371015582409
aF1.8556917537989488
aF2.194208235298143
aF2.326669044440296
aF2.0075874731402
aF1.962495890668088
aF1.956170203616067
aF2.0319055149680993
aF2.3171326069778684
aF2.0354243125542464
aF2.123324104801963
aF2.286593815371867
aF2.203631353746215
aF2.2318412566075705
aF2.0979878658473257
aF2.258564502100116
aF2.0281610907158454
aF2.2405163389755254
aF2.0354970632518006
aF2.0764931358306615
aF2.0855046965553417
aF2.1384889045231277
aF2.4492459810493226
aF2.0231172727343765
aF2.376640514613977
aF2.3072075302351807
aF2.109326239488144
aF2.319027884335493
aF2.1435134274140015
aF2.137833471690921
aF2.3676054356200615
aF2.1784198387786056
aF2.0631199930358752
aF2.1496324746176025
aF2.2457751692817705
aF2.3233098246432915
aF2.3873353999225726
aF2.164201494135556
aF2.5269086718848066
aF2.184759215531798
aF2.2586143224623094
aF2.2107833690409953
aF2.5120961526861505
aF2.3116492114248754
aF2.18675432004495
aF2.5072686788006386
aF2.2009442365097542
aF2.6255817607738865
aF2.0963923506101665
aF2.797226824975914
aF2.3708702131254875
aF2.626418562035407
aF2.197621689824529
aF2.4329277568474774
aF2.6821792367006148
aF2.5409076228205576
aF2.509133327214871
aF2.246305585705879
aF2.5102648294451693
aF2.2381941518884467
aF2.4719319492598584
aF2.4532641229256607
aF2.350233056125505
aF2.475510377336694
aF2.3106496358907567
aF2.276225743372506
aF2.265714176794577
aF2.239532424871866
aF2.2726566177998304
aF2.1289201517612257
aF2.1726664696421665
aF2.1641101490517842
aF2.1758097184837935
aF2.0206728992739356
aF2.1416411746094015
aF2.1464057125936473
aF2.0908982320830125
aF2.1135185755631847
aF2.1313870589200756
aF2.100886811529497
aF2.1163135068437735
aF2.098495796051501
aF2.229452453307405
aF2.008820536112464
aF2.2333526132683676
aF2.0289063927104705
aF2.1694109923694826
aF1.9440017147225344
aF1.90233563160256
aF2.0903381872271676
aF1.8880329999958325
aF2.0392921762234186
aF1.891682550152608
aF1.9849517138246289
aF2.272696793284312
aF2.195652434682991
aF1.983258293426561
aF2.1496228126906147
aF2.172072352570578
aF2.0918628501827166
aF2.1349939370928284
aF2.1439101845947763
aF2.1683780975662272
aF2.214633452675675
aF2.1823471598735127
aF2.1701630356018153
aF2.133074591880319
aF2.216953068154055
aF2.263723597774693
aF2.209573834114816
aF2.103717615010176
aF2.1055119572784218
aF2.214837366853472
aF2.0835797443246147
aF2.1094285758923825
aF2.11749878672811
aF2.120511883365739
aF2.144674719294201
aF2.113737129717376
aF2.2083522158724374
aF2.24714825254168
aF2.2921499866878308
aF2.202954202202813
aF2.1925010329480186
aF2.2278532344589856
aF2.2471870882413056
aF2.2383417507227907
aF2.211983301522446
aF2.2569825506526495
aF2.254556594682975
aF2.2523628924342782
aF2.2118757254831625
aF2.1590420873907816
aF2.217415828612821
aF2.2570144053815344
aF2.2171607135645033
aF2.2324749813087656
aF2.2929338722715435
aF2.316649305016533
aF2.1637910691935143
aF2.304036615254979
aF2.173921320804819
aF2.129279068328655
aF2.211097174799003
aF2.3881917836654716
aF2.0548035129978666
aF2.0934054226220162
aF2.5104161460378998
aF2.164803737778763
aF2.2753756329305097
aF2.048299158666238
aF2.3062144574098173
aF2.230536242651303
aF2.145335581281034
aF2.2164018816633173
aF2.1612756136541296
aF2.2932901606324827
aF2.1827414538730183
aF2.258424462607309
aF2.1822023490036435
aF2.2666062464148222
aF2.2762668788173595
aF2.2042398208808276
aF2.255732184411373
aF2.29191771263106
aF2.2000131385820914
aF2.4130474949129095
aF2.331636045112502
aF2.2606990263713245
aF2.2762938441974643
aF2.2392823466558185
aF2.3224220356557796
aF2.3311993322152964
aF2.185373821570492
aF2.454910863446768
aF2.350293359249793
aF2.1613775862005395
aF2.2395286049201433
aF2.0422726263599222
aF2.1224610542737947
aF2.127793410513439
aF2.1628770265093036
aF2.16909748741178
aF2.2541032299787376
aF2.0382836990035327
aF2.2733472690369148
aF2.042411203888264
aF2.0853813136118298
aF2.1465341676376157
aF2.1296697375963465
aF2.084657589295392
aF2.23431000812863
aF2.1138311405482964
aF2.135114582222076
aF2.1253505345385713
aa(lp30
F3.0437757627596
aF3.0448475794644705
aF3.04621593041188
aF3.048077984973781
aF3.051569738177103
aF3.0588044078967855
aF3.067019286816211
aF3.073529882172813
aF3.082846909201955
aF3.0906850529923764
aF3.1001207581379226
aF-3.1237438734109384
aF-3.0994311855922256
aF-3.0808080235550634
aF-3.0103920346700233
aF-2.9962534568571346
aF-2.9834754551098404
aF-2.972018564805224
aF-2.9587660787605348
aF-2.948075704745408
aF-2.915650751975002
aF-2.899454353643344
aF-2.885469951003447
aF-2.8652549058634835
aF-2.84966218865962
aF-2.829166422312685
aF-2.8111610670507954
aF-2.7785171282510053
aF-2.734274720013665
aF-2.679859553955454
aF-2.616309885744031
aF-2.5674706152327365
aF-2.4995189820496777
aF-2.45575698010709
aF-2.41203508667194
aF-2.35289140577431
aF-2.308554186910879
aF-2.259234663527354
aF-2.2074558767543815
aF-2.1611874856142337
aF-2.037243666162341
aF-1.974446903989469
aF-1.9146942632641992
aF-1.8728817951362986
aF-1.8207128400870543
aF-1.7902345964551747
aF-1.7544993258006825
aF-1.718410345754977
aF-1.6662239815810682
aF-1.62917066102794
aF-1.570513784268694
aF-1.5330714722632544
aF-1.4892017646910196
aF-1.4456443337015954
aF-1.4029436000487623
aF-1.3522046795288127
aF-1.315723424666917
aF-1.2844138984403268
aF-1.270977080596863
aF-1.2654348076986468
aF-1.2691239477794263
aF-1.2733943859465269
aF-1.2769253133497152
aF-1.2804279394187834
aF-1.2861062898143654
aF-1.2897489807174896
aF-1.294805951066734
aF-1.3006884372352059
aF-1.3054176421562727
aF-1.3101168475470335
aF-1.3181926478369186
aF-1.3223215188409496
aF-1.3261005720399213
aF-1.3280804459118967
aF-1.3304786243675188
aF-1.331136270763438
aF-1.331301451730898
aF-1.3300669223667387
aF-1.329840014810611
aF-1.3279863595247186
aF-1.3258802371364944
aF-1.3244939505693993
aF-1.3219072502492553
aF-1.3195213322330805
aF-1.3162314030570101
aF-1.3138165138105793
aF-1.3103211523084413
aF-1.3076936905425773
aF-1.303350189509685
aF-1.299946485181258
aF-1.297170998900131
aF-1.2950819736359889
aF-1.2926040185252772
aF-1.2905598098998061
aF-1.2895710979790016
aF-1.288680604114363
aF-1.288554128383537
aF-1.2892878116064204
aF-1.2910326783139763
aF-1.2981331854653138
aF-1.3115387308989184
aF-1.3159290518071884
aF-1.3217803775581267
aF-1.329658290442945
aF-1.3350790253874312
aF-1.3405003402064297
aF-1.3443273840641223
aF-1.3477268911826534
aF-1.3475693505426205
aF-1.3452616217118016
aF-1.3415786425884844
aF-1.3368214398330378
aF-1.327009678836317
aF-1.3168897329314422
aF-1.3097853822829717
aF-1.3013196587689015
aF-1.294271344197013
aF-1.2866464528250021
aF-1.2818774738736727
aF-1.2787429398380028
aF-1.2691017608100517
aF-1.2674295490868113
aF-1.264497283485796
aF-1.2628969280641156
aF-1.2626350761821006
aF-1.2653591815548926
aF-1.2679339910415957
aF-1.271092039964834
aF-1.2745831883651282
aF-1.277410781785735
aF-1.2792153467130873
aF-1.2780123182401333
aF-1.2768366466695547
aF-1.2767650677911044
aF-1.2749721704955028
aF-1.2737912151994308
aF-1.2724342539902869
aF-1.2709621924771313
aF-1.26790628882674
aF-1.2643048992412276
aF-1.2558443609862069
aF-1.2513465336061507
aF-1.2490567870162763
aF-1.2469804905182185
aF-1.2463001268366847
aF-1.2498609663915257
aF-1.2526630325657009
aF-1.2603400593071663
aF-1.2678835844163903
aF-1.2727261542866941
aF-1.2614397660822418
aF-1.2558746080195666
aF-1.2511954918900108
aF-1.2483441467046021
aF-1.2434935893927446
aF-1.2421232656024026
aF-1.2421075578401144
aF-1.2435994890116695
aF-1.2457803850765625
aF-1.248258898160243
aF-1.2541216109287412
aF-1.2573306738359113
aF-1.2591539923154407
aF-1.259730919118956
aF-1.2617560613711396
aF-1.2642006398636252
aF-1.2662949970558663
aF-1.2700545993931918
aF-1.2721075505396053
aF-1.2705626559487468
aF-1.2698737455087363
aF-1.2674761372392953
aF-1.2663017608319784
aF-1.2641143114155993
aF-1.2605485408930752
aF-1.2589313967736053
aF-1.25748968256763
aF-1.2586310590473473
aF-1.2611105637360682
aF-1.2613544566243426
aF-1.2605633387986839
aF-1.2599309446223783
aF-1.2603037590928623
aF-1.2612149575482392
aF-1.2611136069954003
aF-1.2615132725758131
aF-1.259349806563311
aF-1.2561033540231212
aF-1.2515319119628538
aF-1.247573015754327
aF-1.241914390336955
aF-1.2391015132443244
aF-1.2382579071688036
aF-1.2381247540590117
aF-1.2369589656707212
aF-1.237034924440785
aF-1.2371157426233421
aF-1.2378772538364249
aF-1.245067740516707
aF-1.2472707882859333
aF-1.2510518030384954
aF-1.2513289838820096
aF-1.2515550553225976
aF-1.252847516306946
aF-1.257443815296326
aF-1.266053098165693
aF-1.2732211158964826
aF-1.2774198415137026
aF-1.2795121318233247
aF-1.2779433031681442
aF-1.2744865232285918
aF-1.2717332169984532
aF-1.2667774571741848
aF-1.2621266721652578
aF-1.2602706056867272
aF-1.2554625695353077
aF-1.2507422533236208
aF-1.2473399473271711
aF-1.244644313610534
aF-1.2426499732127017
aF-1.2388383453905272
aF-1.2380527379992028
aF-1.2374906118114881
aF-1.235562553848419
aF-1.234635730100277
aF-1.233315055970369
aF-1.2327210665514075
aF-1.2327549656094983
aF-1.2334282239122478
aF-1.236047359325085
aF-1.2381709105939467
aF-1.2418442609713207
aF-1.2442050687281714
aF-1.246895964265019
aF-1.2490457747406396
aF-1.2473286875413745
aF-1.2441708335415478
aF-1.2428306827395368
aF-1.2388446915114497
aF-1.235837636192881
aF-1.2272219472722237
aF-1.2252266524007451
aF-1.2271476542098148
aF-1.2318030440982048
aF-1.2375674020339116
aF-1.248273970439619
aF-1.2559291029027075
aF-1.2656107751215921
aF-1.2770502711385472
aF-1.2878488157359742
aF-1.2936438296471449
aF-1.298360035776759
aF-1.3005730320372864
aF-1.2993707137704902
aF-1.2952277276379853
aF-1.288177889916862
aF-1.2830809756618418
aF-1.2780512483926787
aF-1.2733553622988674
aaa.