(lp0
(lp1
(lp2
F0.23500927964410015
aF0.4520462937238952
aF0.7562424897936528
aF1.0029505011156266
aF1.210299968679799
aF1.400264323995868
aF1.586129604135095
aF1.7793171812913706
aF1.9869676447310547
aF2.2236900430833675
aF2.483357108110228
aF2.8941819364691552
aF3.210850243084513
aF3.654093450274182
aF4.013142721305071
aF4.384530734853394
aF4.84136679861021
aF5.20928614211238
aF5.553772646229842
aF5.870046025241775
aF6.572517099317246
aF6.792577602923806
aF7.014520739951654
aF7.24053608161724
aF7.542879037137754
aF7.805850379370849
aF8.068829942176425
aF8.324244323428285
aF8.599186553464765
aF8.877843372070924
aF9.138582996663407
aF9.409230255724083
aF9.589602716453408
aF9.78116019245801
aF9.990536795050575
aF10.170399248326138
aF10.367092683585117
aF10.52672750255413
aF10.684038360066465
aF10.839808145489847
aF10.987155624616513
aF11.044294914077158
aa(lp3
F1.4054572558936287
aF1.4057248807047502
aF1.406128895955915
aF1.4067912620344243
aF1.5155039663163135
aF1.6246871085887598
aF1.7358898596814942
aF1.8467059828728294
aF2.0666033878580765
aF2.2868072858430644
aF2.5085312656305345
aF2.9339936789753556
aF3.2677993953662736
aF3.710565498060536
aF4.144336891200471
aF4.451546843523892
aF4.9917802660503074
aF5.314754804943913
aF5.640859672939533
aF5.9587981530181455
aF6.728996689116645
aF6.949977416411211
aF7.155193210521058
aF7.377049645180486
aF7.599198562788275
aF7.910436362623823
aF8.129639626511693
aF8.456064675889188
aF8.656547216099252
aF8.975971329421
aF9.302646609499629
aF9.612621823264314
aF9.822992019138832
aF10.131597991356891
aF10.311869976983344
aF10.612302148595266
aF10.79526894490126
aF10.983749640566458
aF11.038914259873268
aF11.110294036854032
aF11.337325391246146
aa(lp4
F0.0050513939310701285
aF0.026637209580398297
aF0.06119225951633552
aF0.11974460964045973
aF0.20722615176259682
aF0.3381851741460915
aF0.5036867426915815
aF0.7070419008052944
aF0.9439733317525683
aF1.2094599285481906
aF1.5766417633255732
aF1.9825938279718713
aF2.3447551042189416
aF2.881336680267311
aF3.2224503099139628
aF3.643521311366083
aF4.092830845442053
aF4.505891994571751
aF4.828079791162125
aF5.178594864534146
aF5.7938927467748185
aF6.018409519967797
aF6.247970073703729
aF6.511575284432217
aF6.826241047943349
aF7.142307647305692
aF7.404133923488476
aF7.726936432196443
aF8.00697243618646
aF8.347600859448022
aF8.623609303980995
aF8.85731258757818
aF8.94686730642681
aF9.065704302342002
aF9.175090663506115
aF9.250727543716016
aF9.359029110943723
aF9.406704451623222
aF9.557761244144801
aF9.62863137496087
aF9.671522660814095
aa(lp5
F-12.389339447021484
aF-12.410383224487305
aF-12.44669246673584
aF-12.51632022857666
aF-12.600438117980957
aF-12.73570728302002
aF-12.92392349243164
aF-13.112651824951172
aF-13.377493858337402
aF-13.62305736541748
aF-14.026302337646484
aF-14.441089630126953
aF-14.844979286193848
aF-15.350751876831055
aF-15.69600772857666
aF-16.117937088012695
aF-16.57464599609375
aF-16.9528865814209
aF-17.27642059326172
aF-17.65416717529297
aF-18.267799377441406
aF-18.496746063232422
aF-18.708314895629883
aF-19.004728317260742
aF-19.30518341064453
aF-19.658857345581055
aF-19.897302627563477
aF-20.230676651000977
aF-20.51755714416504
aF-20.832578659057617
aF-21.14566421508789
aF-21.45269012451172
aF-21.793100357055664
aF-22.03339195251465
aF-22.24110221862793
aF-22.45771026611328
aF-22.67689323425293
aF-22.85150146484375
aF-23.059776306152344
aF-23.193666458129883
aF-23.42698860168457
aaa(lp6
(lp7
F-0.03229330955541087
aF-0.060073619621743166
aF-0.09902521024130245
aF-0.1286163369082758
aF-0.14787406651258797
aF-0.1589089589621713
aF-0.16288251127161363
aF-0.159886614487003
aF-0.15163794745943013
aF-0.13858176517272358
aF-0.12052819141849676
aF-0.08359867012684465
aF0.060550888366632374
aF0.26021989071394097
aF0.3728208847613319
aF0.4643208050022417
aF0.7141091406030569
aF0.8805275629136378
aF1.0051466949454497
aF1.0959707164401074
aF1.5033130920189985
aF1.5727010820383338
aF1.686999149400926
aF1.8673001867748364
aF2.0306407120926147
aF2.132532412800174
aF2.3227362538289396
aF2.503899536466751
aF2.6474607787423516
aF2.9174720936089678
aF3.116053338939217
aF3.34694669576696
aF3.640442020033942
aF3.8499566912593166
aF4.013353646112044
aF4.267604262012036
aF4.451995025483163
aF4.735459480522144
aF4.9533464518202095
aF5.198166073967006
aF5.695415994166502
aF5.92590634169815
aa(lp8
F-0.19298501845922472
aF-0.19240545857224645
aF-0.19113447884899631
aF-0.18980101241102182
aF-0.1833727144170681
aF-0.17508649081295036
aF-0.16331982702343717
aF-0.15338117423521003
aF-0.1393653983648649
aF-0.1248572775709107
aF-0.1090372182291634
aF0.34548431859295786
aF0.3760251908261507
aF0.40795239058867594
aF0.43991045299071374
aF0.8942334142674528
aF0.9384856448332969
aF0.9670077639943278
aF0.9934835514182753
aF1.4457702651449247
aF1.5004866220722712
aF1.5197336792996978
aF1.9642820291612642
aF1.9847988974861854
aF2.0098759213111252
aF2.4587234436187493
aF2.484073641840998
aF2.51640624637021
aF2.9718786185691606
aF3.015705332760929
aF3.069257250787656
aF3.5616031617281365
aF3.6361375294707363
aF3.705769035312375
aF4.190147158714477
aF4.249241503777157
aF4.714763899744724
aF4.756714032722284
aF5.233641757759755
aF5.280045288133289
aF5.797013940574894
aa(lp9
F5.653027418413357e-07
aF3.305815712760535e-05
aF0.000131223337114543
aF0.0004092240240970529
aF0.0010213696560746504
aF0.002339442693078376
aF0.004545754816862791
aF0.008241770175951813
aF0.014024270256055828
aF0.022680726177283568
aF0.039228638014299766
aF0.06496826139865096
aF0.09653806490876825
aF0.15662342832281706
aF0.20236526316044334
aF0.26628321304437136
aF0.3464121141308044
aF0.4294913857230869
aF0.5001823369350527
aF0.5826342221300346
aF0.7412532660461291
aF0.8032801598663774
aF0.8698409243651399
aF0.950342333448088
aF1.0518270975711863
aF1.1598163049979673
aF1.2551894954034326
aF1.3797819123051616
aF1.4954612307708135
aF1.6490770786289615
aF1.7897123809008202
aF2.0422683413685165
aF2.3399962640765044
aF2.598236339844416
aF2.8543815313936185
aF3.1430343416848188
aF3.387357445480573
aF3.6290404074560616
aF3.8823266616718466
aF4.104542514187472
aF4.598091917207271
aa(lp10
F-2.6656746864318848
aF-2.6636908054351807
aF-2.660261869430542
aF-2.65374755859375
aF-2.64605450630188
aF-2.6366584300994873
aF-2.6263158321380615
aF-2.615168333053589
aF-2.6006832122802734
aF-2.5891475677490234
aF-2.5762391090393066
aF-2.5718882083892822
aF-2.5762441158294678
aF-2.5937273502349854
aF-2.6128461360931396
aF-2.643913745880127
aF-2.6877386569976807
aF-2.7319512367248535
aF-2.775658130645752
aF-2.8327932357788086
aF-2.9373817443847656
aF-2.9815919399261475
aF-3.025031089782715
aF-3.090160369873047
aF-3.1615114212036133
aF-3.252709150314331
aF-3.3188717365264893
aF-3.418360948562622
aF-3.5118274688720703
aF-3.62627911567688
aF-3.7583346366882324
aF-3.91225266456604
aF-4.117239952087402
aF-4.28593635559082
aF-4.451513767242432
aF-4.644991874694824
aF-4.866566181182861
aF-5.063792705535889
aF-5.33465576171875
aF-5.537195682525635
aF-5.967923641204834
aaa(lp11
(lp12
F0.01435826608738692
aF0.054480698907815234
aF0.10710561689498782
aF0.17716186098742673
aF0.2661343521592106
aF0.39255755494239813
aF0.5091864101653938
aF0.649303831809102
aF0.7619348396712501
aF0.8562888285616413
aF0.9773936231417462
aF1.1138609775204427
aF1.1849566597569703
aF1.288592406300045
aF1.2794082661085588
aF1.3037694194390939
aF1.264443548747075
aF1.2669599728419436
aF1.2570745965186687
aF1.142117115025828
aF0.757825911807386
aF0.7483500968248782
aF0.7597727168202938
aF0.8217564106405447
aF0.8851507076990356
aF0.9870975720582134
aF0.9940782821030205
aF1.0076092207841432
aF1.0763103305204031
aF1.097424416453521
aF1.0687413509064154
aF1.100123508612761
aF0.7431254078556048
aF0.8035842874368949
aF0.7192591852286019
aF0.6014384852888534
aF0.7119490609640188
aF0.6278645189163254
aF0.7080486833186583
aF0.7397919112871698
aF0.5310900423662578
aF0.4058355747589447
aa(lp13
F0.0
aF0.0
aF0.0
aF0.0
aF0.0
aF0.0
aF0.0
aF0.0
aF0.0
aF0.0
aF0.0
aF0.0
aF0.0
aF0.0
aF0.0
aF0.0
aF0.0
aF0.0
aF0.0
aF0.0
aF0.0
aF0.0
aF0.0
aF0.0
aF0.0
aF0.0
aF0.0
aF0.0
aF0.0
aF0.0
aF0.0
aF0.0
aF0.0
aF0.0
aF0.0
aF0.0
aF0.0
aF0.0
aF0.0
aF0.0
aF0.0
aa(lp14
F0.05890486291392009
aF0.0903206236401834
aF0.14529788668208796
aF0.2316890491995041
aF0.3455641846854382
aF0.4672828612637677
aF0.6007617414377255
aF0.7459740965021054
aF0.8361364981117727
aF0.9300558308797532
aF1.078346724052832
aF1.155494616906076
aF1.1962120238567666
aF1.298217097007634
aF1.2600646404201274
aF1.2761942346733417
aF1.2383764947129858
aF1.2454772106499268
aF1.1452783406434923
aF0.9540010721969936
aF0.7357480477696761
aF0.7599396925185087
aF0.7869881563201988
aF0.8251816583365101
aF0.9394156489833627
aF0.9601036462430486
aF0.9823002686531003
aF1.0040456657591617
aF1.043564459277188
aF0.9946718471252648
aF1.0540498764000512
aF0.2925973685875719
aF0.5133098074402437
aF0.42948700383470234
aF0.19369232484620527
aF0.4394231332981087
aF0.3676266564046013
aF0.1480445007586715
aF0.515063093236483
aF0.07735134471328871
aF-0.12732977408062984
aa(lp15
F0.07091741263866425
aF0.12398377805948257
aF0.19790558516979218
aF0.3157106041908264
aF0.41561904549598694
aF0.5426884293556213
aF0.6655157208442688
aF0.7704993486404419
aF0.8811766505241394
aF0.9708873629570007
aF1.095735788345337
aF1.1991006135940552
aF1.2692193984985352
aF1.3302000761032104
aF1.30795156955719
aF1.2768378257751465
aF1.2465031147003174
aF1.214825987815857
aF1.1260793209075928
aF0.9342995882034302
aF0.7814761996269226
aF0.8145495057106018
aF0.8488367795944214
aF0.9031110405921936
aF0.9887253046035767
aF1.044150948524475
aF1.058382511138916
aF1.0864187479019165
aF1.1305333375930786
aF1.1186734437942505
aF1.1054387092590332
aF1.1039260625839233
aF1.1120812892913818
aF1.0955009460449219
aF1.0294057130813599
aF0.996648907661438
aF0.954452633857727
aF0.9483932256698608
aF0.9131547212600708
aF0.8641278147697449
aF0.8167834877967834
aaa(lp16
(lp17
F-0.0019767868935443096
aF-0.00021409383902334762
aF9.403498912677468e-05
aF0.00032236797912572104
aF0.0007308806524690864
aF0.0015668138528375977
aF0.002742681730388327
aF0.0047493297511037565
aF0.0074834470371897156
aF0.011359786572725978
aF0.01702714828260622
aF0.02844166182523007
aF0.04105715877347667
aF0.06069558434842425
aF0.07301441663592352
aF0.08217072135285301
aF0.09473438866896304
aF0.10518647712812979
aF0.11474916110490596
aF0.11192056509256249
aF0.07844983854914878
aF0.08932000460357861
aF0.0963700732112643
aF0.10826115840741461
aF0.11981120755258713
aF0.14433139442323958
aF0.1496761989881084
aF0.1463615302023168
aF0.18204598843210962
aF0.20472732125368337
aF0.19525039236204952
aF0.26060569662288513
aF0.45641063143150445
aF0.4505116686967988
aF0.44856147270087726
aF0.4411990616510686
aF0.3933918029471888
aF0.4322444388005634
aF0.3334664283742008
aF0.37602186142374516
aF0.37879775165725305
aF0.3621941859433572
aa(lp18
F0.0
aF0.0
aF0.0
aF0.0
aF0.0
aF0.0
aF0.0
aF0.0
aF0.0
aF0.0
aF0.0
aF0.0
aF0.0
aF0.0
aF0.0
aF0.0
aF0.0
aF0.0
aF0.0
aF0.0
aF0.0
aF0.0
aF0.0
aF0.0
aF0.0
aF0.0
aF0.0
aF0.0
aF0.0
aF0.0
aF0.0
aF0.0
aF0.0
aF0.0
aF0.0
aF0.0
aF0.0
aF0.0
aF0.0
aF0.0
aF0.0
aa(lp19
F1.0745290481971403e-05
aF0.00017247810105992282
aF0.00047398926808970855
aF0.0012563890670051173
aF0.0027590039022577593
aF0.005209897736483891
aF0.009029939557841891
aF0.015166718301836576
aF0.022863319913095172
aF0.034536485652237346
aF0.05831649940616685
aF0.08286771612010208
aF0.11428750200842623
aF0.15709955020401245
aF0.1763492815890784
aF0.2013471344006917
aF0.23546863775996235
aF0.2600932234906688
aF0.2588692946873615
aF0.23175545719826926
aF0.1976594361366818
aF0.2133679915964481
aF0.2329496192465916
aF0.25585944114493114
aF0.3111425831802997
aF0.33566994940872
aF0.3666770503570251
aF0.39764905689402313
aF0.44606275541222606
aF0.46867301168390135
aF0.5688069139120255
aF1.1046602225962396
aF1.0253736223513232
aF1.0036718884568367
aF0.9544381730367477
aF0.9041873284973682
aF0.8976001666999595
aF0.9744934064258828
aF0.8403954922285525
aF0.9117134481605799
aF0.8465618259171648
aa(lp20
F6.153137436605696e-20
aF1.9873572563499963e-19
aF-2.889108459618621e-19
aF-5.017196797015619e-19
aF6.399234008597879e-21
aF-7.50334907606837e-22
aF1.1245015847484754e-18
aF1.267819621462449e-18
aF1.937012233148406e-21
aF1.4310426545559115e-21
aF-7.061188121070924e-22
aF-7.575151700532566e-23
aF-2.230098990572817e-18
aF-2.2374017546107414e-18
aF2.8359165840751075e-22
aF-2.2072104894331685e-18
aF1.1204655160848556e-21
aF8.548713973747129e-23
aF-2.780049076114121e-22
aF1.539395949994947e-23
aF-2.8165022754355115e-22
aF3.2235860569657624e-21
aF6.84549714127667e-21
aF3.011054559760228e-21
aF-3.4601976251391994e-18
aF3.136241156107383e-21
aF3.5401609681595474e-18
aF3.9232775270793014e-18
aF7.850757958850985e-18
aF7.584479420683427e-18
aF2.1860782454574412e-23
aF-7.955083632067398e-18
aF1.302092346031962e-21
aF1.2779744977901077e-20
aF-6.943434298289532e-18
aF7.135408856392676e-18
aF1.1177629417324408e-21
aF2.5384204002432988e-21
aF-3.5389492713467794e-21
aF-8.2405091735209e-23
aF3.1134042261246353e-21
aaa(lp21
(lp22
F-0.0009352591001298068
aF0.0018224183557715016
aF0.0016141407784179562
aF0.0038265443313202454
aF0.004283223410847134
aF0.00885242293314071
aF0.011258057229716525
aF0.013955156833687027
aF0.0201517792355836
aF0.021887228437769454
aF0.0322962798368884
aF0.03773587861316578
aF0.04102166444105891
aF0.04543726524958947
aF0.05640910219884972
aF0.05464388910942255
aF0.061515513453950295
aF0.06201188579920011
aF0.061210969886908155
aF0.0508764727107108
aF0.036464721136343456
aF0.039513616004225635
aF0.03833400918352615
aF0.041410503297453154
aF0.0491223318983322
aF0.05606405260582016
aF0.06517704959768057
aF0.07260576898902207
aF0.09005780468543594
aF0.11675057589747073
aF0.17826880475370047
aF0.22990009765156558
aF0.23561608927003372
aF0.23158338544573032
aF0.21791081925652012
aF0.2131793438852416
aF0.2050483386834989
aF0.20107762214032035
aF0.21377370335430232
aF0.2204661583295994
aF0.21143154862830776
aF0.19161564726603939
aa(lp23
F0.0
aF0.0
aF0.0
aF0.0
aF0.0
aF0.0
aF0.0
aF0.0
aF0.0
aF0.0
aF0.0
aF0.0
aF0.0
aF0.0
aF0.0
aF0.0
aF0.0
aF0.0
aF0.0
aF0.0
aF0.0
aF0.0
aF0.0
aF0.0
aF0.0
aF0.0
aF0.0
aF0.0
aF0.0
aF0.0
aF0.0
aF0.0
aF0.0
aF0.0
aF0.0
aF0.0
aF0.0
aF0.0
aF0.0
aF0.0
aF0.0
aa(lp24
F0.0
aF0.0
aF0.0
aF0.0
aF0.0
aF0.0
aF0.0
aF0.0
aF0.0
aF0.0
aF0.0
aF0.0
aF0.0
aF0.0
aF0.0
aF0.0
aF0.0
aF0.0
aF0.0
aF0.0
aF0.0
aF0.0
aF0.0
aF0.0
aF0.0
aF0.0
aF0.0
aF0.0
aF0.0
aF0.0
aF0.0
aF0.0
aF0.0
aF0.0
aF0.0
aF0.0
aF0.0
aF0.0
aF0.0
aF0.0
aF0.0
aa(lp25
F0.002086980501189828
aF0.0035934364423155785
aF0.0060671595856547356
aF0.009628373198211193
aF0.011118141002953053
aF0.011853968724608421
aF0.017373306676745415
aF0.02221984788775444
aF0.019374387338757515
aF0.04118815064430237
aF0.03534330800175667
aF0.039642028510570526
aF0.04992498829960823
aF0.05843856558203697
aF0.056267186999320984
aF0.061628084629774094
aF0.0636102706193924
aF0.07315125316381454
aF0.0599527582526207
aF0.03994099050760269
aF0.039767347276210785
aF0.043358318507671356
aF0.04091832414269447
aF0.05054689198732376
aF0.06020522117614746
aF0.07017471641302109
aF0.07065393775701523
aF0.09233041107654572
aF0.12157689034938812
aF0.18106071650981903
aF0.22303526103496552
aF0.23612350225448608
aF0.2337169349193573
aF0.21838580071926117
aF0.21812193095684052
aF0.20277942717075348
aF0.19640950858592987
aF0.20179197192192078
aF0.22136326134204865
aF0.2170727550983429
aF0.19623832404613495
aaa(lp26
(lp27
F0.0007390435963279369
aF0.0015369197645249252
aF0.00291567931555005
aF0.004848709150663588
aF0.006995545838694423
aF0.010214267372383241
aF0.01357661590688192
aF0.018533334452410115
aF0.02498439286278359
aF0.032858194952368365
aF0.04414849960387043
aF0.06609067722602222
aF0.08781399486474782
aF0.11508675041511579
aF0.13355079512887766
aF0.1512677441297823
aF0.18008616531665012
aF0.19928077937450672
aF0.2166389065910044
aF0.23147028055883884
aF0.2598135347700505
aF0.2705186546081406
aF0.2832755940962504
aF0.29686664079369013
aF0.31418667805642725
aF0.3294685962982131
aF0.3500725526770636
aF0.36878163176266865
aF0.39156344328845516
aF0.4238910567470283
aF0.47100627882206314
aF0.5363709544791346
aF0.6067399133004359
aF0.670990669129545
aF0.735051165443022
aF0.7972549541735102
aF0.8561130749040679
aF0.9138573851036568
aF0.9818182960659123
aF1.0439126834369326
aF1.182416193626071
aF1.2376880688030802
aa(lp28
F0.0
aF0.0
aF0.0
aF0.0
aF0.0
aF0.0
aF0.0
aF0.0
aF0.0
aF0.0
aF0.0
aF0.0
aF0.0
aF0.0
aF0.0
aF0.0
aF0.0
aF0.0
aF0.0
aF0.0
aF0.0
aF0.0
aF0.0
aF0.0
aF0.0
aF0.0
aF0.0
aF0.0
aF0.0
aF0.0
aF0.0
aF0.0
aF0.0
aF0.0
aF0.0
aF0.0
aF0.0
aF0.0
aF0.0
aF0.0
aF0.0
aa(lp29
F0.00018241771275295807
aF0.001909618030226901
aF0.0032621781193439476
aF0.0054226850876202305
aF0.007983886647958939
aF0.01114888284445867
aF0.015029684808746793
aF0.020328626804104463
aF0.027337192264263482
aF0.037116722788754636
aF0.05402691629963448
aF0.07159365593382021
aF0.09525205294315274
aF0.12042621475926166
aF0.13904942044294377
aF0.1564816780997369
aF0.18789997287085972
aF0.20587151601356996
aF0.22229628211972666
aF0.23831353337916658
aF0.2624540521874473
aF0.2737222445222923
aF0.28778435603251484
aF0.30066440655209903
aF0.31983711662320796
aF0.33633486875760055
aF0.3572654525090168
aF0.37709379353914263
aF0.4039367991007724
aF0.44032985304199096
aF0.4948540849729867
aF1.3118669814956123
aF1.1066627721205944
aF1.166458611602032
aF1.3705768153174795
aF1.1184219686629449
aF1.1820705560653333
aF1.420029698693924
aF1.0209587268756786
aF1.486157290696756
aF1.7200853914469265
aa(lp30
F3.0433833289154473
aF3.0441453487311962
aF3.0454617223449425
aF3.0478006843639824
aF3.0504734876101627
aF3.0568674904674826
aF3.067019286816211
aF3.0744126854930727
aF3.0844485442108307
aF3.093898160012013
aF3.1113125933027135
aF3.1297032039786594
aF-3.133466513400577
aF-3.107495783692915
aF-3.0888957817145823
aF-3.0659329926334946
aF-3.0405682704204806
aF-3.019816925415316
aF-3.0030025828176106
aF-2.9856599889804047
aF-2.956220147625524
aF-2.9443117060719426
aF-2.9332400420244693
aF-2.9172396530307325
aF-2.899454353643344
aF-2.8781186806249517
aF-2.863335816149706
aF-2.837761161673638
aF-2.8111610670507954
aF-2.7685716807306786
aF-2.7080514258425494
aF-2.637382047310844
aF-2.553965625553094
aF-2.4931700088282818
aF-2.43741861185363
aF-2.377038519149713
aF-2.314288945123231
aF-2.259234663527354
aF-2.1806991815315833
aF-2.12188911016172
aF-2.002837270244146
aaa.