(lp0
(lp1
(lp2
F0.472026333741905
aF0.7834194123410138
aF1.0140333880268846
aF1.1883761313079417
aF1.3121003663493624
aF1.4204486531216127
aF1.5896880017314134
aF1.7656332903553333
aF1.97192545016793
aF2.200866446051687
aF2.339792429884202
aF2.6112253430667196
aF2.9031730920815804
aF3.221292576852826
aF3.5738753028420156
aF3.951778875506538
aF4.203629447255583
aF4.561300826220577
aF4.921958471989591
aF5.268177612991577
aF6.132926122583015
aF6.383615385325501
aF6.620724279296132
aF6.850568193302139
aF7.593874360120644
aF7.860310919129889
aF8.122516739535184
aF8.370376556918604
aF8.647192093313988
aF8.938466002571392
aF9.192317656551891
aF9.4395338218226
aF9.637182339595435
aF10.266061308082216
aF10.410718378600569
aF10.5919624745839
aF10.69466251441013
aF10.804197711632703
aF10.902494815224534
aF10.978365624944697
aF11.107127797738034
aF11.120715861986323
aF11.11647434670689
aF11.099810102209407
aF11.066361622076306
aF11.03869941780972
aF10.987729959375256
aF10.961122825007036
aF10.894468132948905
aF10.823256655131136
aF10.735742198782388
aF10.65025033521658
aF10.53185577671625
aF10.445057593204243
aF10.316346110755374
aF10.175272667974667
aF9.670521830810017
aF9.567622391459246
aF9.391513032479713
aF9.278853995182448
aF8.96108102778816
aF8.792839188265301
aF8.517909648867732
aF8.352365571272813
aF8.074974093040245
aF7.801992413501308
aF7.617729106480933
aF7.404958319921135
aF7.30909893335949
aF6.962296159781796
aF6.5906935637416995
aF6.289428780505186
aF5.991196027368859
aF5.770619762331963
aF5.538621135826032
aF4.520332730775589
aF4.250177396791676
aF3.9087169430841193
aF3.5963092285833613
aF3.388955527211819
aF2.6983176818311305
aF2.461945683794392
aF2.077609632236159
aF1.8034681941192239
aF1.5620159372136142
aF1.1576224117248248
aF0.9311164814799564
aF0.6678945332522654
aF0.4110834313064423
aF0.1888452649021389
aF-0.12295641701943423
aF-0.35359287148763024
aF-0.7567922174234224
aF-1.0537549483367132
aF-1.4473103354590158
aF-1.8532463795980567
aF-2.13714530833163
aF-2.3597597133901376
aF-2.6185498971569148
aF-2.9000981076578576
aF-3.670838256592818
aF-3.9289910819616978
aF-4.221555253936137
aF-4.479397700018849
aF-4.906678574726481
aF-5.332570715963938
aF-5.624389502099683
aF-5.934472214174642
aF-6.241530843002928
aF-6.690539417414117
aF-6.9932282590389825
aF-7.447749867154809
aF-7.925666893350566
aF-8.266771033581573
aF-8.56630291100538
aF-8.83309227245187
aF-9.157496450448473
aF-9.657518649404816
aF-9.951013978669067
aF-10.461326267321654
aF-11.455049182062414
aF-12.031518879073719
aF-12.36637523403893
aF-12.656910729802789
aF-12.993722396703996
aF-14.482381293964748
aF-14.771754866600178
aF-15.08257491002729
aF-15.361125862749812
aF-15.6779151699133
aF-16.121822737368515
aF-16.569469602480623
aF-16.884130687811023
aF-17.365218528678135
aF-17.650889369738522
aF-17.97885333277367
aF-18.32008386243172
aF-18.65305859097737
aF-18.990923618390223
aF-19.344541246054522
aF-20.210512312150566
aF-20.57472907661771
aF-20.937536633628127
aF-21.230121883831917
aF-21.76802753141806
aF-22.043643752390288
aF-22.382490253455835
aF-22.851946929759503
aF-23.23364972077463
aF-23.577715056821393
aF-23.79986252589635
aF-24.114956015994107
aF-24.60421568929909
aF-25.071170435480507
aF-25.43822488646474
aF-25.75079533616071
aF-26.1088434581358
aF-26.816619932829077
aF-27.205002262519038
aF-27.79033910557751
aF-28.955133159586595
aF-29.38875299480388
aF-29.74227964199027
aF-30.150978616220584
aF-30.58599683569665
aF-30.968188665448984
aF-31.391773834227006
aF-31.992944957499684
aF-32.40664908143333
aF-33.00232127923739
aF-33.345766877617045
aF-33.733907226921005
aF-34.14088051141379
aF-34.69906988070517
aF-35.05729406272921
aF-35.46872692297113
aF-36.064222687167664
aF-36.48541447971419
aF-37.300999659260604
aF-37.728237147566006
aF-39.06344574832215
aF-39.454979868911416
aF-39.91188116232847
aF-40.56244031488296
aF-41.02660663499122
aF-41.700356339592346
aa(lp3
F1.4056745943004234
aF1.4060188520963195
aF1.4063955960748453
aF1.5154871497284685
aF1.5157017042016248
aF1.5161345802916348
aF1.627025480288121
aF1.8464419452095626
aF1.9568638171833892
aF2.1773249050739856
aF2.396818421107466
aF2.6192538891441166
aF2.935247874138942
aF3.268161998063505
aF3.709245833718673
aF4.036222942334389
aF4.252334689658001
aF4.667845475535103
aF4.991278210934438
aF5.314660772408157
aF6.179121344120201
aF6.5092723303175655
aF6.728731383254814
aF6.933135227900896
aF7.70736307434844
aF7.910160744854893
aF8.129202228598862
aF8.45566094889996
aF8.764554774062825
aF8.975042815742277
aF9.302062267218487
aF9.612277860027342
aF9.929332457882726
aF10.71198205610166
aF10.783420741274053
aF10.968000298504496
aF11.035114960206727
aF11.215655753149324
aF11.263498190003153
aF11.333658388604368
aF11.327537076083416
aF11.294353023657719
aF11.254969438248153
aF11.225487884102133
aF11.178231946385985
aF11.149382550972891
aF11.09364638327318
aF11.066504452120347
aF10.896699844792229
aF10.86919918520315
aF10.71658262990744
aF10.670386791367841
aF10.520206519227855
aF10.473439707286312
aF10.336527873525549
aF10.193806050087893
aF9.629389124840953
aF9.506061220727037
aF9.29219706326364
aF9.169904074396243
aF8.836172874982474
aF8.622473259620389
aF8.394742284089372
aF8.273410319154298
aF7.953104916239188
aF7.721299228202976
aF7.49069332483075
aF7.1502942533047245
aF7.028754205464744
aF6.685250915653074
aF6.451241842314105
aF6.11009965315252
aF5.7689792151349915
aF5.644431603931101
aF5.303101391277972
aF4.149220810961949
aF3.9135144845562797
aF3.5682684308825428
aF3.2227941680789196
aF2.98681521965194
aF2.297208412762758
aF2.061219544981895
aF1.8251731601445687
aF1.4642449660630574
aF1.2468149635789285
aF0.9046963604545732
aF0.546089423553284
aF0.3294622619486102
aF0.09804361741546032
aF-0.3484662084824793
aF-0.5786013586950317
aF-0.8095263066276903
aF-1.1441547766084619
aF-1.4823626119206905
aF-1.9239478547312525
aF-2.2607545586218225
aF-2.4897842154698338
aF-2.702293156419689
aF-3.0414837989193915
aF-3.2722095586542475
aF-4.175520390418654
aF-4.394358958303128
aF-4.6322027034129425
aF-4.978657851935364
aF-5.437882570931495
aF-5.896265333341792
aF-6.22615124088555
aF-6.464973424904712
aF-6.812683021447003
aF-7.268614943844783
aF-7.595861487493843
aF-8.068060414200538
aF-8.522048751643275
aF-8.866578771355902
aF-9.085489635138579
aF-9.429044964800292
aF-9.772887218343786
aF-10.222676278456154
aF-10.562469348541624
aF-11.010972743479472
aF-12.139698394698156
aF-12.607363530138617
aF-12.840580666336182
aF-13.185219362910349
aF-13.418671786979715
aF-14.71869500922386
aF-14.955069198629403
aF-15.298822123677096
aF-15.6430457141343
aF-15.897253780211567
aF-16.36883823213441
aF-16.73161143746785
aF-17.074440956808342
aF-17.54447467849729
aF-17.886503642208393
aF-18.24264384421718
aF-18.581534970398298
aF-18.91764874384849
aF-19.38069803172959
aF-19.71980906732319
aF-20.52870852304195
aF-20.99780974570939
aF-21.125999553706865
aF-21.4890040000203
aF-21.851887838518216
aF-22.214170621405252
aF-22.449462155338846
aF-22.719556001198015
aF-23.18857117906467
aF-23.439196793523813
aF-23.78106852357
aF-24.373402736796994
aF-24.71459182139468
aF-25.179427082646328
aF-25.646606113978397
aF-25.98688346826876
aF-26.671681221496538
aF-27.13943903079702
aF-27.82321573509922
aF-28.182694731734586
aF-29.442560137790927
aF-29.785174507632284
aF-30.25419305090834
aF-30.59812015559125
aF-31.067214432873236
aF-31.519152252581133
aF-32.20763348156372
aF-32.45945102466541
aF-32.80440727807421
aF-33.38173423883044
aF-33.7407258919769
aF-34.08277367565916
aF-34.67505267350198
aF-35.016523916435204
aF-35.485046482617086
aF-36.171082147993374
aF-36.53130555703249
aF-37.21632593966766
aF-37.8999814578823
aF-38.349816753622335
aF-39.61276693828645
aF-40.064397129050136
aF-40.771443069433225
aF-41.225726150684125
aF-41.67973814501119
aF-42.384565404322046
aa(lp4
F0.014606091042174554
aF0.03978506313054866
aF0.08531165361767429
aF0.14942564792044827
aF0.21622361538653068
aF0.3081843734927714
aF0.4836569163370741
aF0.6821868986424292
aF0.9180782586755174
aF1.1512234497485319
aF1.3554382681842896
aF1.6722866135783458
aF2.016600697760914
aF2.3418311007487156
aF2.7620353808070583
aF3.106874265604673
aF3.4129668545095346
aF3.7896426782392663
aF4.1668052107699785
aF4.5020924397082185
aF5.388709295708761
aF5.6179535810363666
aF5.813332465181543
aF6.6087400931515505
aF6.85082649841631
aF7.167277647268643
aF7.457344299012585
aF7.753867119159004
aF8.03390303744458
aF8.34295707417214
aF8.648641386645744
aF8.84293785228552
aF8.886786682182976
aF8.872810428858779
aF8.920031545468595
aF9.040436799773632
aF9.001624571596233
aF9.024840428793604
aF9.00159263302191
aF8.985710043196876
aF8.846162363003666
aF8.84751059463136
aF8.843551180249223
aF8.832597355204474
aF8.817480258390859
aF8.815028693919094
aF8.805452492235146
aF8.783512386225885
aF8.780984287635743
aF8.781109491487856
aF8.772379680655419
aF8.78839439341077
aF8.777193358872635
aF8.798751842289324
aF8.814061402237408
aF8.805596726922145
aF8.80603468779515
aF8.882883225074956
aF8.90440064546051
aF9.025328992092682
aF8.821795393401267
aF8.800017785958072
aF8.764005558554361
aF8.828683547388357
aF8.752908488478361
aF8.615126361363293
aF8.419116614448296
aF8.108807077349246
aF8.053689083991586
aF8.105140780319395
aF7.8754207181593365
aF7.595052888600484
aF7.397000637178378
aF7.072974909257883
aF6.055997214933929
aF5.731375988000272
aF5.3799601461698465
aF5.153438616888427
aF4.736275021844485
aF4.5394063070592905
aF3.8720854020918405
aF3.714287960288721
aF3.365101660802284
aF3.0932915994268524
aF2.9380281324802655
aF2.504305783921872
aF2.273908097522914
aF2.019586992243159
aF1.6268721538156052
aF1.371425517972889
aF1.1716676885413622
aF0.8110404906918545
aF0.5457118194835435
aF0.23357343870885205
aF-0.2221175270383156
aF-0.49902604237751064
aF-0.7637953167876865
aF-1.0253712687673477
aF-1.2851100386501693
aF-1.6210079914777342
aF-2.5338068211185405
aF-2.741458545233882
aF-3.073355087017111
aF-3.3747338181236675
aF-3.849882925829826
aF-4.343775996666927
aF-4.635533368702504
aF-5.00206788055712
aF-5.3064629430726535
aF-5.807610495749395
aF-6.165723425294529
aF-6.683464892492079
aF-7.113956305391685
aF-7.4676093712116485
aF-7.834180130506995
aF-8.148855753362682
aF-8.429462567962842
aF-8.99772860300184
aF-9.338326783104037
aF-9.804051742507387
aF-10.820461548826863
aF-11.341700415010454
aF-11.646612245182085
aF-11.969447717206455
aF-13.46828443667558
aF-13.796004795557469
aF-14.078502850782684
aF-14.33106701848049
aF-14.572721115604002
aF-14.858519655186367
aF-15.327948469267657
aF-15.701850387312305
aF-15.971012437974569
aF-16.375639309131724
aF-16.69327525233507
aF-16.98034156315413
aF-17.22110035127176
aF-17.52533687478429
aF-17.889971974865244
aF-18.206593368340407
aF-19.001397281439342
aF-19.305388855372147
aF-19.641077777761225
aF-19.933195282922316
aF-20.319051201712053
aF-20.647426105510114
aF-20.88030533434796
aF-21.38100672604833
aF-21.68080210064526
aF-22.00763345340637
aF-22.25992712979494
aF-22.573291295149797
aF-22.898910636100187
aF-23.248280602310395
aF-23.549078594299186
aF-23.876199909545907
aF-24.329277718448637
aF-24.82935998509431
aF-25.22703529790653
aF-25.63078992677667
aF-26.639804743730764
aF-27.010437639217173
aF-27.311461188907174
aF-27.680351019383128
aF-28.01120586885814
aF-28.410078757463523
aF-28.96821802299765
aF-29.28996471971778
aF-29.676937083590097
aF-30.125887842763174
aF-30.45376115649471
aF-30.806669252044042
aF-31.284856776370674
aF-31.68350254618419
aF-31.969858701411663
aF-32.42844210606174
aF-32.77850919749157
aF-33.32429415947675
aF-33.8468522217191
aF-34.27006760496386
aF-35.460535454272424
aF-35.80620752014505
aF-36.39418200976281
aF-36.752164734198196
aF-37.21491329816131
aF-37.78285148949788
aa(lp5
F-12.402342796325684
aF-12.430562973022461
aF-12.48123550415039
aF-12.541533470153809
aF-12.611807823181152
aF-12.72006607055664
aF-12.90476131439209
aF-13.090867042541504
aF-13.351510047912598
aF-13.565888404846191
aF-13.771965026855469
aF-14.093647956848145
aF-14.477049827575684
aF-14.806466102600098
aF-15.193863868713379
aF-15.579383850097656
aF-15.88768196105957
aF-16.23092269897461
aF-16.64964485168457
aF-16.9528865814209
aF-17.861520767211914
aF-18.09032440185547
aF-18.267799377441406
aF-19.08335304260254
aF-19.334749221801758
aF-19.68832778930664
aF-19.956851959228516
aF-20.26280975341797
aF-20.582111358642578
aF-20.8931884765625
aF-21.177413940429688
aF-21.50936508178711
aF-22.414722442626953
aF-22.559833526611328
aF-22.736167907714844
aF-22.924165725708008
aF-23.059776306152344
aF-23.193666458129883
aF-23.33706283569336
aF-23.44743537902832
aF-23.631591796875
aF-23.695241928100586
aF-23.732088088989258
aF-23.77133560180664
aF-23.796051025390625
aF-23.817825317382812
aF-23.83241844177246
aF-23.837217330932617
aF-23.83416175842285
aF-23.820941925048828
aF-23.80035972595215
aF-23.77289390563965
aF-23.73175621032715
aF-23.679426193237305
aF-23.62009620666504
aF-23.366695404052734
aF-23.31471061706543
aF-23.259340286254883
aF-23.172340393066406
aF-23.10555076599121
aF-22.915163040161133
aF-22.798011779785156
aF-22.704090118408203
aF-22.606943130493164
aF-22.49756622314453
aF-22.36074447631836
aF-22.2359619140625
aF-22.121219635009766
aF-22.00811767578125
aF-21.891189575195312
aF-21.774080276489258
aF-21.642372131347656
aF-21.509960174560547
aF-21.416521072387695
aF-20.94174575805664
aF-20.830745697021484
aF-20.677698135375977
aF-20.550413131713867
aF-20.42221450805664
aF-20.291200637817383
aF-20.028623580932617
aF-19.91118812561035
aF-19.762630462646484
aF-19.626543045043945
aF-19.517101287841797
aF-19.340730667114258
aF-19.21038818359375
aF-19.077402114868164
aF-18.961700439453125
aF-18.811294555664062
aF-18.71319007873535
aF-18.566242218017578
aF-18.45502471923828
aF-18.296096801757812
aF-18.140596389770508
aF-18.018173217773438
aF-17.91169548034668
aF-17.82194709777832
aF-17.717483520507812
aF-17.59908676147461
aF-17.293928146362305
aF-17.21558952331543
aF-17.102394104003906
aF-16.968873977661133
aF-16.794235229492188
aF-16.630128860473633
aF-16.517343521118164
aF-16.382516860961914
aF-16.22470474243164
aF-16.040456771850586
aF-15.896524429321289
aF-15.664807319641113
aF-15.511880874633789
aF-15.336722373962402
aF-15.20251178741455
aF-15.046340942382812
aF-14.863525390625
aF-14.656303405761719
aF-14.473550796508789
aF-14.245290756225586
aF-13.789985656738281
aF-13.6080904006958
aF-13.470281600952148
aF-13.283028602600098
aF-12.473320007324219
aF-12.327242851257324
aF-12.175860404968262
aF-11.972989082336426
aF-11.818826675415039
aF-11.606537818908691
aF-11.33653450012207
aF-11.085705757141113
aF-10.888897895812988
aF-10.602753639221191
aF-10.427572250366211
aF-10.225789070129395
aF-10.054683685302734
aF-9.853848457336426
aF-9.686653137207031
aF-9.46505355834961
aF-9.019988059997559
aF-8.850810050964355
aF-8.620772361755371
aF-8.387848854064941
aF-8.14754867553711
aF-7.965913772583008
aF-7.720001697540283
aF-7.407573223114014
aF-7.091566562652588
aF-6.8713765144348145
aF-6.682554244995117
aF-6.3990936279296875
aF-6.120030403137207
aF-5.903390407562256
aF-5.659978866577148
aF-5.477638244628906
aF-5.11248254776001
aF-4.839698791503906
aF-4.568934917449951
aF-4.30065393447876
aF-3.7704434394836426
aF-3.5642499923706055
aF-3.4175093173980713
aF-3.151512861251831
aF-2.970961570739746
aF-2.7915194034576416
aF-2.4276182651519775
aF-2.3058888912200928
aF-1.9968430995941162
aF-1.7476575374603271
aF-1.5923186540603638
aF-1.3747750520706177
aF-1.0352685451507568
aF-0.8183238506317139
aF-0.6320395469665527
aF-0.3212732970714569
aF-0.10292647778987885
aF0.2686114013195038
aF0.5487309694290161
aF0.7975046634674072
aF1.394110918045044
aF1.588563323020935
aF1.9477041959762573
aF2.1483731269836426
aF2.382150411605835
aF2.6869678497314453
aaa(lp6
(lp7
F-0.06460676350402625
aF-0.10341765213567637
aF-0.13223414253780622
aF-0.15130326410679298
aF-0.15860686355716014
aF-0.16345214102989863
aF-0.16537318083452315
aF-0.16130051978633297
aF-0.1520824117685843
aF-0.13886998951292376
aF-0.1289821589777715
aF-0.1075654076728356
aF-0.07967180172698678
aF0.10701691277084782
aF0.24879304951557496
aF0.35954450159101575
aF0.4231105344496905
aF0.5614104749251977
aF0.7622125401344375
aF0.9103635839921396
aF1.298278904034287
aF1.4306936994375796
aF1.5176106277957468
aF1.5820980581377269
aF2.0636815079964217
aF2.1529013752224824
aF2.375067693102229
aF2.536125332000694
aF2.7217807400497374
aF2.960576227404767
aF3.141102553011459
aF3.419946836944996
aF3.6758942479917764
aF4.317187645627225
aF4.554941391334808
aF4.807964917961025
aF4.970387710107709
aF5.2128800675158
aF5.446577194620026
aF5.679636693059221
aF6.2475215476197885
aF6.523438600617062
aF6.6996492045905915
aF6.893392039051668
aF7.091999946860295
aF7.300910983536215
aF7.515786849051354
aF7.716602280705178
aF7.932472058189205
aF8.144501107425764
aF8.367212472265253
aF8.526288485589088
aF8.762607301542484
aF8.923028967873188
aF9.166806087987858
aF9.381751114272134
aF10.040112636145258
aF10.15080697174713
aF10.413567845293594
aF10.541286700310287
aF10.973972698412938
aF11.182988125890157
aF11.39448123852475
aF11.621938797778553
aF11.95154365726425
aF12.36316929921703
aF12.624691659082432
aF12.963270121539933
aF13.22428389049714
aF13.6615036348029
aF14.061045676834832
aF14.449389145549263
aF14.886129089793094
aF15.158948436277518
aF15.6088486433369
aF17.04811802691943
aF17.51013006363531
aF17.991417863156858
aF18.412337194938452
aF18.732263693584027
aF19.651058776274088
aF19.99375169140853
aF20.437736116319574
aF20.923098930006024
aF21.300554972017984
aF21.766940595571054
aF22.212038173574218
aF22.581795052059977
aF22.886365344735257
aF23.301552477180486
aF23.68380750371723
aF24.017671087815206
aF24.505395512977575
aF24.820033195176386
aF25.30171255473596
aF25.78531756442233
aF26.076645040404156
aF26.39243698367889
aF26.699134759737255
aF26.993350340032872
aF27.802401143541744
aF28.089501712659175
aF28.363033458213685
aF28.635997111990257
aF29.036810692755907
aF29.42514560997426
aF29.72786773474387
aF30.018244375434872
aF30.2518076101479
aF30.652849011550877
aF30.925746221525333
aF31.31656028163672
aF31.774223008607255
aF32.0165805577333
aF32.32761936351762
aF32.673748508793096
aF33.04805956880847
aF33.56717024548557
aF33.90972218635742
aF34.42363052378883
aF35.50710648324253
aF36.04484374945932
aF36.420546920291294
aF36.79986958920454
aF37.22197628390136
aF39.49183813008713
aF39.945018133492084
aF40.48941083820451
aF41.011464812560696
aF41.52114418306541
aF42.26723027209951
aF43.08120837975827
aF43.664396111505425
aF44.45024906013708
aF45.00874218476182
aF45.54295691942738
aF46.134238131748866
aF46.67500908456091
aF47.18086449133975
aF47.73224782932427
aF49.141611355955995
aF49.67577387321551
aF50.27814828140839
aF50.8508792983364
aF51.72484908202472
aF52.3252990717229
aF52.99948847364999
aF53.96532983404502
aF54.91989714181588
aF55.6294821772268
aF56.24819144481086
aF56.91201114446635
aF57.93052260049995
aF58.887780870388994
aF59.51664610482928
aF60.10666664765439
aF60.74728995428574
aF61.93791029656814
aF62.517686748282145
aF63.39204170038781
aF65.1593965836961
aF65.74326576715528
aF66.25259053221338
aF66.8852557026483
aF67.45550737467521
aF68.04104528094912
aF68.61431680074799
aF69.5073320150386
aF70.13147045497783
aF71.0350418371624
aF71.56507859223042
aF72.21396603122325
aF72.7932495170033
aF73.79496885283856
aF74.38687012347006
aF75.07074706669715
aF76.01469507410064
aF76.63919188819916
aF77.80768055212903
aF78.3756633991284
aF80.08463886708141
aF80.65443158829088
aF81.18077480902627
aF82.04886413235093
aF82.64796736597457
aF83.4882745567962
aa(lp8
F-0.19213078774358294
aF-0.19116601251749366
aF-0.1900115834675108
aF-0.18393372115660483
aF-0.1824824780945089
aF-0.18093881925042343
aF-0.16884131579649064
aF-0.15314241802523526
aF-0.1444657352104905
aF-0.13035827437416925
aF-0.11730186431140938
aF-0.0993927009670027
aF0.3487132625228701
aF0.3776499542898827
aF0.4073692211228944
aF0.43388332625363346
aF0.4527532770156204
aF0.9102802957782115
aF0.9412934034785847
aF0.9695311929800793
aF1.462712781756623
aF1.4856043068675717
aF1.5025747432107843
aF1.9473648021090975
aF2.0171382410126326
aF2.4623810488224667
aF2.487644049296844
aF2.519853719094278
aF2.981102021362758
aF3.0208742400820547
aF3.0743721386416096
aF3.5701049668469924
aF3.6490451847631014
aF4.271426503520105
aF4.731785829220793
aF4.780557982422088
aF5.240291196016187
aF5.289683873689209
aF5.759214465449761
aF5.802832487464235
aF6.723632380782034
aF6.747536552116354
aF7.187122878084425
aF7.204627678730165
aF7.645599816740792
aF7.660015893665713
aF8.101492060972342
aF8.111236253901298
aF8.545899936769294
aF8.552677353738462
aF8.55740030437599
aF8.986179502068833
aF8.98634158705094
aF9.413604971736445
aF9.410204443768558
aF9.830878993275856
aF10.235069780020513
aF10.65557517159174
aF10.646403647141804
aF11.066585906344901
aF11.477392446407618
aF11.468423885095671
aF11.883995191312598
aF12.304398451985428
aF12.291568102110196
aF12.708103407145252
aF13.124603225363726
aF13.536687095719623
aF13.956493634491686
aF14.367920518599723
aF14.783968365163835
aF15.196063208839368
aF15.608157963282281
aF16.027648540489974
aF16.439292716459008
aF18.09776876371883
aF18.51481615216981
aF18.92696262289352
aF19.33887847900853
aF19.75492633043853
aF20.578269295911575
aF20.994193158036712
aF21.409361037921496
aF22.24628360130752
aF22.23841669802754
aF22.64925096678801
aF23.484900113094906
aF23.476425471091108
aF23.891751109968116
aF24.299016103134402
aF24.715336785870605
aF25.131710364411344
aF25.54406619518169
aF25.955217519030022
aF26.362578739599233
aF26.773479546945023
aF27.18938667832637
aF27.180733359209732
aF27.59193624875943
aF28.007985770637948
aF28.823358068197884
aF28.816133195006426
aF29.231964085644833
aF29.64446510338342
aF30.053070604141862
aF30.461748390730182
aF30.449122532647273
aF30.865917344497284
aF31.27743387273037
aF31.685664252330817
aF31.673255624784815
aF32.50553331709389
aF32.913408601396625
aF33.325523623141514
aF33.317655131776014
aF33.729079049246685
aF34.13932415000414
aF34.54647600119914
aF34.958729310992474
aF35.36647126053248
aF36.59504349242687
aF37.426801107859156
aF37.84316762201797
aF38.255973501614456
aF38.67214843318208
aF41.174614197951826
aF41.59022800857382
aF42.00318952438298
aF42.414755041584485
aF43.254991593124174
aF44.087994048560944
aF44.92372781201647
aF45.335311179828395
aF46.1674550961657
aF46.57924012393617
aF47.41544246666566
aF47.82661589192513
aF48.23838660723126
aF49.07075133167662
aF49.482504181399236
aF50.726215949740336
aF51.55780866114176
aF51.97770053096335
aF52.81462015647997
aF53.652600762516265
aF54.48880057324068
aF54.90575188175023
aF56.17064449096032
aF57.00347891454359
aF57.842655379490914
aF58.25358147182868
aF59.504882203900536
aF59.91635042752803
aF60.748784070718415
aF61.58009162799216
aF61.991786465613565
aF62.81500813968254
aF63.645556537543946
aF64.46775674271503
aF65.30458850530248
aF66.95594017499131
aF67.36810257259788
aF68.20067258731183
aF68.61277203133129
aF69.44365723128242
aF69.8515206806666
aF70.6742984998906
aF71.51562636522684
aF71.9281813518139
aF72.75588974650849
aF73.5928109552373
aF74.00484682168477
aF75.25741337802516
aF75.66948083492247
aF76.49994472026859
aF77.32364631136133
aF78.15999660692141
aF78.98447247828683
aF79.80812470492617
aF80.21524199621106
aF81.86871662099173
aF82.27537508086809
aF83.52263539558022
aF83.92988832876925
aF84.33762352925771
aF85.58469093546339
aa(lp9
F2.185901258201967e-05
aF0.00010998992002671372
aF0.00033906060318099145
aF0.0007883328898257007
aF0.0013935643147235935
aF0.002424447306304419
aF0.004928948991532926
aF0.008729440312781975
aF0.0146788341712941
aF0.02234495464029702
aF0.030575915624331776
aF0.04701480078735344
aF0.07073213079136208
aF0.1004151086506778
aF0.14735111191906863
aF0.19213418529817705
aF0.23680018561901292
aF0.2988541047261712
aF0.36950185380943684
aF0.43838365982687055
aF0.6466274029808811
aF0.7062690113635883
aF0.7586293436967808
aF0.994811423355928
aF1.0740616550494506
aF1.183199158660829
aF1.2902897378184903
aF1.406277135482671
aF1.5234586092221554
aF1.6641060176485816
aF1.8212288196470618
aF2.1180634154462177
aF3.0040723409998757
aF3.208710789082856
aF3.441606953547474
aF3.6814461865633947
aF3.882763642901802
aF4.116274205323378
aF4.360975038634639
aF4.601485928356818
aF5.066827670144734
aF5.255516547086501
aF5.398458178383939
aF5.565907570964957
aF5.727901827079037
aF5.899072570020112
aF6.08325260240145
aF6.244033696058517
aF6.433601702521094
aF6.5882074146877
aF6.812372872895543
aF6.9604266260098955
aF7.161091831600423
aF7.327643999138661
aF7.547499756260249
aF8.29125327278543
aF8.474177181755172
aF8.65102211610059
aF8.88974007098506
aF9.066511042210077
aF9.44108816766933
aF9.750125543522259
aF10.090976850940114
aF10.35380850024627
aF10.736527521280324
aF10.986592544965117
aF11.422263174266417
aF11.396773642851663
aF11.778329826443954
aF12.259227455235937
aF12.640834358740324
aF13.13785057417037
aF13.564881341576772
aF13.72617320080705
aF15.026211371308317
aF15.347573333716184
aF15.71041888865746
aF16.1203897819942
aF16.402018760817434
aF16.767332456660117
aF17.437072606051313
aF17.825913735926076
aF18.118262050297634
aF18.525086988454756
aF18.867988183038126
aF19.091977384785302
aF19.603913530955904
aF19.8844420597765
aF19.887789248309314
aF20.33634183140297
aF20.60405318905491
aF20.902115145392695
aF21.359358210790386
aF21.71569358736284
aF22.27402647279739
aF22.679684559713465
aF22.93746922759155
aF23.207138394613533
aF23.558802966041096
aF23.9378499524306
aF24.853666895464936
aF25.090800469463254
aF25.40979202475955
aF25.750243406496843
aF26.200418435865597
aF26.630344022763197
aF26.9021806592708
aF27.277056975516956
aF27.54811859122295
aF28.00346761752391
aF28.305293753956537
aF28.7420836507635
aF29.18201940374215
aF29.513595939587805
aF29.696169583198255
aF30.068125596605448
aF30.48152520158567
aF30.898123117108018
aF31.25848937545807
aF31.819584331549382
aF32.876346450754795
aF33.40510760006452
aF33.7256724282262
aF34.15562536806431
aF36.3031724581005
aF36.6337205108347
aF37.11472497131414
aF37.616787166702
aF38.043000563658296
aF38.5327069827722
aF39.221379978598364
aF39.96122030832949
aF40.48675046425335
aF41.12563686912413
aF41.630139134135185
aF42.15495996628055
aF42.62200898983402
aF43.148443024705074
aF43.64793801869421
aF44.1629510975357
aF45.461839534739376
aF45.91043576439916
aF46.435145543063356
aF46.99744888393891
aF47.70387900137731
aF48.26072762303012
aF48.85470484676617
aF49.63360463165262
aF50.396789003142636
aF51.05748545592055
aF51.541790547662416
aF52.31940410185955
aF52.975793436095124
aF53.72926794261008
aF54.2994208487261
aF54.85362006998505
aF55.66931472603349
aF56.4351656983419
aF57.17986015712304
aF57.77659606923369
aF59.327374337393614
aF59.85816476674777
aF60.22020693496553
aF60.75915258217559
aF61.31414611013812
aF61.837865369836464
aF62.57806887063813
aF63.022463111002416
aF63.65400251639734
aF64.37062184161007
aF64.81468444794223
aF65.37743120765862
aF66.17082140251551
aF66.82698077049757
aF67.30707177180886
aF68.02762133457061
aF68.58233211066721
aF69.45061171876965
aF70.15086506620626
aF70.75959949107988
aF72.2914949639532
aF72.77478124499252
aF73.53308964154722
aF73.9868603720549
aF74.6023428533109
aF75.28867231942085
aa(lp10
F-2.6644504070281982
aF-2.6617822647094727
aF-2.657013177871704
aF-2.6514194011688232
aF-2.6450297832489014
aF-2.6373770236968994
aF-2.627448558807373
aF-2.616421699523926
aF-2.6020305156707764
aF-2.591656446456909
aF-2.5833897590637207
aF-2.574953556060791
aF-2.5719010829925537
aF-2.575528621673584
aF-2.5869739055633545
aF-2.605832099914551
aF-2.625858783721924
aF-2.6537632942199707
aF-2.6960079669952393
aF-2.7319512367248535
aF-2.8662800788879395
aF-2.9052677154541016
aF-2.9373817443847656
aF-3.1083121299743652
aF-3.168839693069458
aF-3.260704517364502
aF-3.3359897136688232
aF-3.4283978939056396
aF-3.5340967178344727
aF-3.650240898132324
aF-3.7729976177215576
aF-3.943952798843384
aF-4.604865550994873
aF-4.744775772094727
aF-4.931089401245117
aF-5.153172492980957
aF-5.33465576171875
aF-5.537195682525635
aF-5.787330627441406
aF-6.012263774871826
aF-6.487266540527344
aF-6.704126834869385
aF-6.85365104675293
aF-7.046604633331299
aF-7.2009711265563965
aF-7.383508205413818
aF-7.583994388580322
aF-7.7636260986328125
aF-7.947315692901611
aF-8.15734577178955
aF-8.34542465209961
aF-8.524580001831055
aF-8.730896949768066
aF-8.94453239440918
aF-9.154520988464355
aF-9.963632583618164
aF-10.130180358886719
aF-10.309708595275879
aF-10.596174240112305
aF-10.819611549377441
aF-11.472981452941895
aF-11.887127876281738
aF-12.227211952209473
aF-12.586722373962402
aF-13.001633644104004
aF-13.535297393798828
aF-14.032166481018066
aF-14.49443244934082
aF-14.95334243774414
aF-15.428840637207031
aF-15.904779434204102
aF-16.43934440612793
aF-16.975177764892578
aF-17.353256225585938
aF-19.23988914489746
aF-19.670265197753906
aF-20.256498336791992
aF-20.737472534179688
aF-21.216115951538086
aF-21.69924545288086
aF-22.652177810668945
aF-23.071535110473633
aF-23.5964298248291
aF-24.07344627380371
aF-24.45490264892578
aF-25.067975997924805
aF-25.520401000976562
aF-25.983295440673828
aF-26.388999938964844
aF-26.923824310302734
aF-27.278499603271484
aF-27.819538116455078
aF-28.23822784423828
aF-28.85102081298828
aF-29.468978881835938
aF-29.969030380249023
aF-30.414386749267578
aF-30.796390533447266
aF-31.247695922851562
aF-31.765525817871094
aF-33.0824089050293
aF-33.411781311035156
aF-33.87794876098633
aF-34.40997314453125
aF-35.079349517822266
aF-35.684974670410156
aF-36.08940505981445
aF-36.56245422363281
aF-37.104461669921875
aF-37.72526168823242
aF-38.20389938354492
aF-38.96296691894531
aF-39.457122802734375
aF-40.01774978637695
aF-40.44409942626953
aF-40.93783187866211
aF-41.51334762573242
aF-42.166954040527344
aF-42.7482795715332
aF-43.483917236328125
aF-44.98311996459961
aF-45.589908599853516
aF-46.049072265625
aF-46.67138671875
aF-49.351173400878906
aF-49.82955551147461
aF-50.3223762512207
aF-50.976783752441406
aF-51.46939468383789
aF-52.1393928527832
aF-52.97910690307617
aF-53.74712371826172
aF-54.344356536865234
aF-55.20535659790039
aF-55.73240661621094
aF-56.34465408325195
aF-56.87115478515625
aF-57.500492095947266
aF-58.03428268432617
aF-58.75236892700195
aF-60.20464324951172
aF-60.75199508666992
aF-61.48763656616211
aF-62.2210578918457
aF-62.96577835083008
aF-63.521785736083984
aF-64.26689910888672
aF-65.2024917602539
aF-66.1441650390625
aF-66.80180358886719
aF-67.36721801757812
aF-68.22024536132812
aF-69.06732940673828
aF-69.7305679321289
aF-70.48138427734375
aF-71.04673767089844
aF-72.18348693847656
aF-73.03571319580078
aF-73.8888931274414
aF-74.74201965332031
aF-76.45329284667969
aF-77.1247787475586
aF-77.60130310058594
aF-78.46089172363281
aF-79.04067993164062
aF-79.61442565917969
aF-80.76526641845703
aF-81.14599609375
aF-82.10527801513672
aF-82.87451934814453
aF-83.35443878173828
aF-84.02928161621094
aF-85.08757019042969
aF-85.76439666748047
aF-86.34481048583984
aF-87.3107681274414
aF-87.98907470703125
aF-89.14631652832031
aF-90.02339935302734
aF-90.80459594726562
aF-92.6711196899414
aF-93.26940155029297
aF-94.35370635986328
aF-94.94853973388672
aF-95.63323974609375
aF-96.51893615722656
aaa(lp11
(lp12
F0.05008316575660161
aF0.08409443870235041
aF0.1213694353175637
aF0.2087792687995427
aF0.2792059479985659
aF0.36953356675672683
aF0.5069831774444928
aF0.6263455476690466
aF0.7346558050418113
aF0.86041770769724
aF0.916756978444258
aF1.0248390012959525
aF1.1402837508862258
aF1.1986581430117724
aF1.2777499409018096
aF1.3090612297601656
aF1.2867856121206567
aF1.2801672001058668
aF1.269128713422326
aF1.2674122303842248
aF0.9887854278369264
aF0.8291536951311752
aF0.7307955496588071
aF0.7692515476738195
aF0.8815296465352958
aF0.9906870142465432
aF1.0004127153283655
aF1.0159784153795084
aF1.0862316709635464
aF1.0806873381000162
aF1.0704535573963543
aF0.9328196808720026
aF0.7940234444399464
aF0.6415325669729514
aF0.570013063814255
aF0.6308289671542565
aF0.4275322414023741
aF0.5371371445910034
aF0.4318805408501873
aF0.42432790292450556
aF0.3602981498222729
aF0.39738700521663495
aF0.37492868243224065
aF0.37339492195284385
aF0.3352958585500713
aF0.3832454703348496
aF0.3642236771583703
aF0.35924239417984655
aF0.3696651633369074
aF0.4050698546534026
aF0.3871927161728945
aF0.4097692791515567
aF0.4049575107243208
aF0.39427183880862254
aF0.42075040981184025
aF0.4903166490204122
aF0.3867982308020464
aF0.5309583881066803
aF0.510969545333259
aF0.7713813371560102
aF0.2324595698079661
aF0.822499432903507
aF0.46775895131925976
aF0.9870531076917264
aF0.642754857926603
aF1.2362166979175904
aF0.5032985158443425
aF0.2311517101961769
aF0.5873476946386583
aF0.9319535497152022
aF0.43290757214989034
aF0.58940548867649
aF0.6115806048889805
aF0.34234865994477365
aF0.546388383945627
aF0.44795001923676425
aF0.36109673959579713
aF0.70660824027864
aF0.27774838995885054
aF0.4223245515484945
aF0.2825028038496243
aF0.6460437276830929
aF0.3830283061150784
aF0.5983796066983593
aF0.6877997570073529
aF0.22645403152267904
aF0.5144694049692397
aF0.7011209232032047
aF0.4050041369441038
aF0.35937003477311863
aF0.7801876583594941
aF0.4374021006522412
aF0.6754561027171427
aF0.6464264789160322
aF0.4594460181167566
aF0.521828693990433
aF0.5619619700931131
aF0.5392973469652078
aF0.6900398018828493
aF0.7274735117222922
aF0.5535533682600604
aF0.48814602808054114
aF0.48973405765414235
aF0.5280498987200576
aF0.557698174965221
aF0.4781810601487486
aF0.6832201203036251
aF0.6349530979038228
aF0.5668531465090654
aF0.47512800491178864
aF0.5347466703357057
aF0.40902374093701793
aF0.5788224247716126
aF-0.2690893880915181
aF0.18700235471771928
aF0.4757840064075027
aF0.7235808223850118
aF0.35996713997052726
aF0.49557225177383857
aF0.6260788637660701
aF0.8661281561708085
aF0.6770294726367824
aF0.5565596827505265
aF0.7093920557981926
aF0.7897355348592091
aF0.8161838638209393
aF0.780884155076744
aF0.8969695951597816
aF0.9213332767203856
aF1.020734391920724
aF0.8458000037034283
aF1.1242749148439233
aF1.2284074698002592
aF0.9320926181060766
aF0.979864549757258
aF1.0951728355089363
aF1.233078016994266
aF0.9478312558934922
aF0.777221427683481
aF0.9217652621992918
aF1.0205929382403676
aF0.9316530486679215
aF0.9146945047792953
aF1.1793610109612973
aF1.0102117466170057
aF0.9616771556982734
aF1.1811828059000458
aF1.0955454841940222
aF1.1680138820555164
aF1.371606000318161
aF0.8723392301392553
aF1.1798118077440856
aF1.122397999003095
aF1.147789175921036
aF1.1543555884401275
aF0.9267604095952451
aF0.9747796337376163
aF1.0810739787551364
aF1.0923723423015164
aF0.9150406964287788
aF0.9910409194601577
aF0.9650010030177253
aF0.8155772363421341
aF1.0207490554388596
aF0.982053443023394
aF0.9679601451951731
aF0.8023621520908025
aF1.1361473226678642
aF0.9847900100547085
aF1.0106158661400793
aF0.8417156605667656
aF1.0035718490953949
aF0.8818137475754341
aF1.200112764327021
aF1.040218300166167
aF1.0346594990053208
aF1.181943232891395
aF1.059619361796167
aF0.9476168387174402
aF0.8685568328344814
aF0.8050031035083676
aF0.8374399534153286
aF0.8988676288181947
aF0.768472610591776
aF0.9586370642537987
aF0.876190852554297
aa(lp13
F0.0
aF0.0
aF0.0
aF0.0
aF0.0
aF0.0
aF0.0
aF0.0
aF0.0
aF0.0
aF0.0
aF0.0
aF0.0
aF0.0
aF0.0
aF0.0
aF0.0
aF0.0
aF0.0
aF0.0
aF0.0
aF0.0
aF0.0
aF0.0
aF0.0
aF0.0
aF0.0
aF0.0
aF0.0
aF0.0
aF0.0
aF0.0
aF0.0
aF0.0
aF0.0
aF0.0
aF0.0
aF0.0
aF0.0
aF0.0
aF0.0
aF0.0
aF0.0
aF0.0
aF0.0
aF0.0
aF0.0
aF0.0
aF0.0
aF0.0
aF0.0
aF0.0
aF0.0
aF0.0
aF0.0
aF0.0
aF0.0
aF0.0
aF0.0
aF0.0
aF0.0
aF0.0
aF0.0
aF0.0
aF0.0
aF0.0
aF0.0
aF0.0
aF0.0
aF0.0
aF0.0
aF0.0
aF0.0
aF0.0
aF0.0
aF0.0
aF0.0
aF0.0
aF0.0
aF0.0
aF0.0
aF0.0
aF0.0
aF0.0
aF0.0
aF0.0
aF0.0
aF0.0
aF0.0
aF0.0
aF0.0
aF0.0
aF0.0
aF0.0
aF0.0
aF0.0
aF0.0
aF0.0
aF0.0
aF0.0
aF0.0
aF0.0
aF0.0
aF0.0
aF0.0
aF0.0
aF0.0
aF0.0
aF0.0
aF0.0
aF0.0
aF0.0
aF0.0
aF0.0
aF0.0
aF0.0
aF0.0
aF0.0
aF0.0
aF0.0
aF0.0
aF0.0
aF0.0
aF0.0
aF0.0
aF0.0
aF0.0
aF0.0
aF0.0
aF0.0
aF0.0
aF0.0
aF0.0
aF0.0
aF0.0
aF0.0
aF0.0
aF0.0
aF0.0
aF0.0
aF0.0
aF0.0
aF0.0
aF0.0
aF0.0
aF0.0
aF0.0
aF0.0
aF0.0
aF0.0
aF0.0
aF0.0
aF0.0
aF0.0
aF0.0
aF0.0
aF0.0
aF0.0
aF0.0
aF0.0
aF0.0
aF0.0
aF0.0
aF0.0
aF0.0
aF0.0
aF0.0
aF0.0
aF0.0
aF0.0
aF0.0
aF0.0
aF0.0
aF0.0
aF0.0
aF0.0
aF0.0
aF0.0
aF0.0
aF0.0
aF0.0
aF0.0
aF0.0
aF0.0
aF0.0
aF0.0
aa(lp14
F0.08639350128823246
aF0.1138817812290752
aF0.1806383841178502
aF0.2827340213911877
aF0.3730455854913347
aF0.49083737269469085
aF0.5850474156032294
aF0.7145540146911887
aF0.8361257019735204
aF0.9183070983849299
aF1.0121881125775438
aF1.1055026756631847
aF1.1900012325028295
aF1.1954251102494726
aF1.2864829279104224
aF1.2523479574045795
aF1.258144793105621
aF1.2301659610325346
aF1.2642352766971032
aF1.244550426758838
aF0.83718327197165
aF0.7482308645844579
aF0.7427367734562537
aF0.8603537220685588
aF0.9455885154055323
aF0.9616741632200161
aF0.9511351024209299
aF1.027326957091636
aF1.0399463724475297
aF0.9896972989358457
aF1.0495646327612171
aF0.37913250145858163
aF0.23567137024147122
aF-0.5482095717435501
aF0.3123198467869789
aF0.569914898511146
aF0.0843509369053627
aF0.11828291835427582
aF-0.13364664664782505
aF-0.01136047341529522
aF-0.03248345332890947
aF-0.006277620384722769
aF-0.03351786623985353
aF-0.06198495324935855
aF-0.003140234657052226
aF-0.007521100044576294
aF-0.06066472972568273
aF-0.009795497433823812
aF-0.010591636007097727
aF-0.009644510042738702
aF-0.04762283037455823
aF0.13437162769939143
aF-0.132575200960156
aF0.33259994407287247
aF0.22468460696863715
aF-0.13032823728583515
aF0.3296303727447003
aF0.3760968794024633
aF0.6622333778394549
aF0.4218551439707609
aF0.29030026828313377
aF-0.34294135818835025
aF1.0600496673776931
aF-0.2492423105367756
aF0.9568119343685096
aF-1.6540801289712999
aF-0.912848727310666
aF-0.23463283396580084
aF-0.2843364900283633
aF-1.1766776682968279
aF-0.6295287653951956
aF-0.9086435057886889
aF-0.7110181360604468
aF-1.222068046420588
aF-0.5489484280766503
aF-1.618903750544283
aF-0.9730080418041042
aF-1.3280666382467397
aF-0.9861635742939959
aF-0.6957828896687199
aF-0.6443463334028938
aF-0.7004538927786494
aF-1.6417249524712996
aF-0.6972919737633442
aF-0.9606748239130181
aF-1.9439194091156409
aF-0.6704621704630773
aF-1.5724986395479819
aF-1.9699646301322455
aF-0.6187330225351495
aF-1.6804639652120794
aF-1.5271687360238577
aF-1.1496526942539196
aF-1.599600209233059
aF-1.1476639495947667
aF-1.2352968078584565
aF-1.572888378459882
aF-1.5173405958254134
aF-1.3982964051394036
aF-1.5612461952486982
aF-1.4883305148493355
aF-1.4898222460387016
aF-1.7217164022972107
aF-1.4815012991247223
aF-1.8158583345191972
aF-1.7546004792499936
aF-1.6567081089846467
aF-1.631638933992764
aF-1.8127509161417348
aF-1.8102927668564632
aF-1.8488133156674627
aF-1.7610803958169303
aF-1.6598740911649261
aF-2.265680102617878
aF-1.7426497324103658
aF-1.2316351799030159
aF-1.6115045492008455
aF-1.8759002549959336
aF-1.4488546458725013
aF-1.717153258579671
aF-1.6136954102533014
aF-2.029943059215963
aF-1.8237150040824142
aF-1.6316269477506717
aF-1.5813866730743769
aF-2.040166717278836
aF-1.3337286330255227
aF-1.4323269009284996
aF-1.366360682304392
aF-1.6460330481597487
aF-1.694038386062192
aF-1.4273768876571928
aF-1.3426116718146701
aF-1.692136514593764
aF-1.5105374457315266
aF-1.4794350997189463
aF-1.3749348686517404
aF-1.632590485942809
aF-1.8904040545898373
aF-1.6436489593003933
aF-1.793815968292657
aF-1.8099402014096175
aF-1.488569260675744
aF-1.4217692061512903
aF-1.6415519932597427
aF-1.6793205078141378
aF-1.587752528384675
aF-1.9739434466915426
aF-1.017372965677832
aF-1.906029452742234
aF-1.3081684336878339
aF-1.3550036753842418
aF-1.6763585436987165
aF-1.269775511282708
aF-1.6351197092466896
aF-1.7171802954413693
aF-1.4914612145046482
aF-1.5326710622545594
aF-1.6832144554326336
aF-2.058660485475725
aF-1.680555460310405
aF-1.9365799609933623
aF-2.1458083577887694
aF-1.8390185404471513
aF-2.045502412241264
aF-2.0393033119826978
aF-2.0179933159008017
aF-1.9670911015096466
aF-1.713741480152251
aF-1.8140499261164418
aF-2.0243111374069636
aF-1.7673054082895878
aF-1.9057273284322187
aF-1.7134747486106223
aF-1.717080503962361
aF-1.736810299069191
aF-1.855048962177523
aF-1.8730211978307172
aF-2.0886994655104756
aF-1.9089995543144684
aF-2.0792593841289286
aF-1.9990327932084158
aF-2.196992159307782
aF-2.070484209852282
aF-2.1014974873889494
aF-2.1735860285162625
aa(lp15
F0.10728537291288376
aF0.16952168941497803
aF0.26037344336509705
aF0.350024938583374
aF0.4276585876941681
aF0.5284574031829834
aF0.6530520915985107
aF0.7619597911834717
aF0.8694703578948975
aF0.9491928815841675
aF1.0180481672286987
aF1.1176694631576538
aF1.2061398029327393
aF1.2588766813278198
aF1.320954442024231
aF1.308756709098816
aF1.2923662662506104
aF1.2633922100067139
aF1.2369520664215088
aF1.214825987815857
aF0.8243811726570129
aF0.7809156775474548
aF0.7814761996269226
aF0.9226306080818176
aF0.9992992877960205
aF1.0458751916885376
aF1.0605010986328125
aF1.0950236320495605
aF1.1390844583511353
aF1.1036922931671143
aF1.1062206029891968
aF1.0978530645370483
aF0.9982615113258362
aF0.9772379994392395
aF0.9547017216682434
aF0.9383848309516907
aF0.9131547212600708
aF0.8641278147697449
aF0.8330094218254089
aF0.8091197609901428
aF0.7613004446029663
aF0.7608354687690735
aF0.7465865015983582
aF0.7447463870048523
aF0.7532809376716614
aF0.7715787291526794
aF0.7588457465171814
aF0.7637051939964294
aF0.7796416878700256
aF0.7886066436767578
aF0.7934955954551697
aF0.7728853821754456
aF0.7847960591316223
aF0.8141817450523376
aF0.8140228390693665
aF0.8608717918395996
aF0.8921650052070618
aF0.9498836994171143
aF1.0694079399108887
aF1.1636353731155396
aF1.397337794303894
aF1.4643607139587402
aF1.5156055688858032
aF1.586578607559204
aF1.6233268976211548
aF1.7063214778900146
aF1.7422341108322144
aF1.7750040292739868
aF1.7762666940689087
aF1.817696452140808
aF1.8364673852920532
aF1.8457117080688477
aF1.8565267324447632
aF1.859511375427246
aF1.8376182317733765
aF1.850874423980713
aF1.8396748304367065
aF1.8479888439178467
aF1.8461933135986328
aF1.8554396629333496
aF1.8259369134902954
aF1.8177413940429688
aF1.8345633745193481
aF1.8739666938781738
aF1.9138628244400024
aF1.9706186056137085
aF1.9865237474441528
aF2.0272884368896484
aF2.0325214862823486
aF2.0696475505828857
aF2.067244291305542
aF2.092369318008423
aF2.0930063724517822
aF2.128345251083374
aF2.1518115997314453
aF2.166891098022461
aF2.195878028869629
aF2.205082654953003
aF2.2246384620666504
aF2.237081527709961
aF2.2794671058654785
aF2.281696319580078
aF2.303598642349243
aF2.3026938438415527
aF2.3254811763763428
aF2.349360704421997
aF2.353461265563965
aF2.3649990558624268
aF2.3721072673797607
aF2.413100481033325
aF2.4102041721343994
aF2.4293062686920166
aF2.467618227005005
aF2.4740452766418457
aF2.4970202445983887
aF2.50175404548645
aF2.525325298309326
aF2.561652421951294
aF2.5718634128570557
aF2.5887269973754883
aF2.659528970718384
aF2.672367811203003
aF2.6821088790893555
aF2.7251105308532715
aF2.818706512451172
aF2.8235058784484863
aF2.8681414127349854
aF2.896435260772705
aF2.9037797451019287
aF2.9511027336120605
aF2.983106851577759
aF3.0275049209594727
aF3.030973196029663
aF3.0545363426208496
aF3.089010715484619
aF3.1049458980560303
aF3.1069650650024414
aF3.1499016284942627
aF3.1475377082824707
aF3.160883903503418
aF3.1969783306121826
aF3.209960699081421
aF3.227482795715332
aF3.229646921157837
aF3.27059006690979
aF3.2820188999176025
aF3.300516366958618
aF3.312570333480835
aF3.3379907608032227
aF3.325950860977173
aF3.3230247497558594
aF3.338688611984253
aF3.328878164291382
aF3.341869831085205
aF3.319722890853882
aF3.3157835006713867
aF3.3283169269561768
aF3.329864263534546
aF3.3257575035095215
aF3.3300046920776367
aF3.3363022804260254
aF3.355264186859131
aF3.3528056144714355
aF3.3577349185943604
aF3.3749616146087646
aF3.3675272464752197
aF3.3761439323425293
aF3.3668441772460938
aF3.3800461292266846
aF3.382615566253662
aF3.382767915725708
aF3.396580696105957
aF3.395451307296753
aF3.4070181846618652
aF3.4044437408447266
aF3.388662576675415
aF3.403999090194702
aF3.416886806488037
aF3.4243130683898926
aF3.4358737468719482
aF3.471343517303467
aF3.495277166366577
aF3.477815866470337
aF3.4923977851867676
aF3.4774162769317627
aF3.4885950088500977
aaa(lp16
(lp17
F-0.0069198632969064144
aF2.6357755511866486e-05
aF0.00021581984646179
aF0.0005737156134811511
aF0.0009811745470079565
aF0.0016438685887602143
aF0.002975211935651313
aF0.004815465103724154
aF0.007493464955567856
aF0.011577244331203967
aF0.014254876595510786
aF0.021253085599123644
aF0.030912242016788494
aF0.04488918163898515
aF0.0589603177049717
aF0.07103099934382764
aF0.07726608661717785
aF0.08647055663700404
aF0.0998327354634419
aF0.10997902157567808
aF0.10653543186259284
aF0.09145383943274854
aF0.08644877434346125
aF0.08958687301600417
aF0.12065558260744061
aF0.14220237802934774
aF0.15119531909603234
aF0.15068126201564416
aF0.19102263969244102
aF0.19951603672620558
aF0.20283340180645534
aF0.4517630519153708
aF0.4664648669034655
aF0.38576620865336114
aF0.327774141111008
aF0.43485694095702204
aF0.6490941102850767
aF0.3848707427646471
aF0.4268521317975157
aF0.3513195716172534
aF0.33810852090176463
aF0.3387926576386544
aF0.34512665986038504
aF0.3267444119529082
aF0.3439699119973539
aF0.3378556984075621
aF0.3473906521825816
aF0.3395768110451041
aF0.3366475054286782
aF0.3528018504952229
aF0.36709680314211757
aF0.34771288518005755
aF0.3617689508250815
aF0.3243843197200019
aF0.363146725608778
aF0.33086277318919083
aF0.3549153016325865
aF0.2672077065446194
aF0.42885393699001617
aF0.3619003025126629
aF-0.08192918652487703
aF0.541022465497819
aF0.618105000887436
aF0.3922648036938634
aF0.6637317349778813
aF0.579701687195499
aF0.49034290723779683
aF-0.07551727429539112
aF0.430724311918195
aF0.48211967510087667
aF0.7290464959268478
aF0.7223716247909813
aF0.6460405176202757
aF0.9216936996025774
aF0.531937667491026
aF0.6556398801045746
aF0.2684449629585564
aF0.6819389208498006
aF0.42492931493810493
aF0.590299453893679
aF0.40125360952228634
aF0.6727866301114643
aF0.6682590890142246
aF0.5686872042216748
aF0.7640922630322706
aF0.8930424189451025
aF0.5868443310511778
aF0.8115971882527488
aF0.620842215689672
aF0.5267215622225283
aF0.7862824470165583
aF0.5308079829340594
aF0.7090889111802163
aF0.7712971056700333
aF0.7003890651934972
aF0.8541563850765654
aF0.832757594687294
aF0.66181739021333
aF0.635179193733119
aF0.6991919869439249
aF0.6687931599661575
aF0.7596440123904423
aF0.8056589831278756
aF0.6305067068226985
aF0.7165304041329927
aF0.6405038779926817
aF0.6213258699336449
aF0.6325944072504185
aF0.745219057135337
aF0.6932755351608868
aF0.7023103806680684
aF0.6820730861351408
aF0.6841459557217704
aF1.1082575274892639
aF0.5841166817283002
aF0.6254970575484727
aF0.9032537684016196
aF0.6638639017203637
aF0.6851065031064952
aF0.868098835201891
aF0.7167120450481991
aF0.9920443349206087
aF0.8643473437781656
aF0.8756888125005363
aF0.9301715021211918
aF1.0158154735624547
aF1.077641787284081
aF1.1288772627763994
aF1.1201413966993659
aF1.1010670803382583
aF1.0632476449025912
aF1.0554400855366852
aF1.0617687452708549
aF1.1404379526342525
aF1.0929904701956403
aF1.0637057167666883
aF1.0817787659261795
aF1.3094124158881848
aF1.1530896098098355
aF1.1169634427996211
aF1.2632582758487232
aF1.130234687823109
aF1.166767433165205
aF1.0581423571820674
aF1.348170083651674
aF1.2569033760286406
aF1.3036875864024122
aF1.265390774010207
aF1.240754961020087
aF1.3778110362838127
aF1.1764418965052243
aF1.287862540676552
aF1.3223251271648309
aF1.3078319330428436
aF1.3261945116278067
aF1.3147873546939282
aF1.2507237480395346
aF1.0797473055772007
aF1.2527021914159049
aF1.2707165534236564
aF1.2154918715965661
aF1.2944181773678147
aF1.1470207660321403
aF1.1516252894499948
aF1.2783602765360003
aF1.2334520249297185
aF1.1935633001450472
aF1.0476080419124347
aF1.199406271048119
aF1.3214554707429704
aF1.2022196802937795
aF1.190725650082791
aF1.3436761966041983
aF1.1092213341525023
aF1.2687669263338066
aF1.2291657234272069
aF1.1547558726045546
aF1.189002103342637
aF1.205450757941049
aF1.219584357331335
aF1.1531083351665188
aF1.211608332757407
aF1.3073327729444923
aF1.2096475288686939
aF1.1997102873735284
aF1.1944665095189753
aa(lp18
F0.0
aF0.0
aF0.0
aF0.0
aF0.0
aF0.0
aF0.0
aF0.0
aF0.0
aF0.0
aF0.0
aF0.0
aF0.0
aF0.0
aF0.0
aF0.0
aF0.0
aF0.0
aF0.0
aF0.0
aF0.0
aF0.0
aF0.0
aF0.0
aF0.0
aF0.0
aF0.0
aF0.0
aF0.0
aF0.0
aF0.0
aF0.0
aF0.0
aF0.0
aF0.0
aF0.0
aF0.0
aF0.0
aF0.0
aF0.0
aF0.0
aF0.0
aF0.0
aF0.0
aF0.0
aF0.0
aF0.0
aF0.0
aF0.0
aF0.0
aF0.0
aF0.0
aF0.0
aF0.0
aF0.0
aF0.0
aF0.0
aF0.0
aF0.0
aF0.0
aF0.0
aF0.0
aF0.0
aF0.0
aF0.0
aF0.0
aF0.0
aF0.0
aF0.0
aF0.0
aF0.0
aF0.0
aF0.0
aF0.0
aF0.0
aF0.0
aF0.0
aF0.0
aF0.0
aF0.0
aF0.0
aF0.0
aF0.0
aF0.0
aF0.0
aF0.0
aF0.0
aF0.0
aF0.0
aF0.0
aF0.0
aF0.0
aF0.0
aF0.0
aF0.0
aF0.0
aF0.0
aF0.0
aF0.0
aF0.0
aF0.0
aF0.0
aF0.0
aF0.0
aF0.0
aF0.0
aF0.0
aF0.0
aF0.0
aF0.0
aF0.0
aF0.0
aF0.0
aF0.0
aF0.0
aF0.0
aF0.0
aF0.0
aF0.0
aF0.0
aF0.0
aF0.0
aF0.0
aF0.0
aF0.0
aF0.0
aF0.0
aF0.0
aF0.0
aF0.0
aF0.0
aF0.0
aF0.0
aF0.0
aF0.0
aF0.0
aF0.0
aF0.0
aF0.0
aF0.0
aF0.0
aF0.0
aF0.0
aF0.0
aF0.0
aF0.0
aF0.0
aF0.0
aF0.0
aF0.0
aF0.0
aF0.0
aF0.0
aF0.0
aF0.0
aF0.0
aF0.0
aF0.0
aF0.0
aF0.0
aF0.0
aF0.0
aF0.0
aF0.0
aF0.0
aF0.0
aF0.0
aF0.0
aF0.0
aF0.0
aF0.0
aF0.0
aF0.0
aF0.0
aF0.0
aF0.0
aF0.0
aF0.0
aF0.0
aF0.0
aF0.0
aF0.0
aF0.0
aF0.0
aF0.0
aF0.0
aa(lp19
F0.00022704658210387382
aF0.00046526478062388304
aF0.0010739632582220868
aF0.002294886694867405
aF0.0037197640344846373
aF0.0059848442369015145
aF0.009319081947366014
aF0.015042039815186977
aF0.023254792438435447
aF0.03344316313614519
aF0.04445086025944518
aF0.06499083631183979
aF0.09522586073103845
aF0.12224420198874135
aF0.15600218637780264
aF0.174820731363589
aF0.18956172275885005
aF0.21482776372017204
aF0.24655585173250374
aF0.26449234848759473
aF0.21333774164181912
aF0.19655573714113642
aF0.20190372291541447
aF0.27491085861633385
aF0.31745888910819364
aF0.3430156932588973
aF0.360299132186896
aF0.4134722456656709
aF0.4544340489726326
aF0.4790884384156391
aF0.5851486313678252
aF1.0530195103226243
aF0.9449486483944829
aF0.8191586522597124
aF0.9514323846694679
aF0.7993907236863425
aF0.9781172936329936
aF0.9033509317155702
aF0.8773794486320632
aF0.8599359441534881
aF0.7886564913591062
aF0.7932273000513743
aF0.7414440476950729
aF0.7474896312874079
aF0.7618297588156157
aF0.785362172792305
aF0.73971786093553
aF0.7774824961614194
aF0.8167453911685789
aF0.7931935082251514
aF0.7957554166670602
aF0.7698320883957845
aF0.7940416465241863
aF0.780302132135685
aF0.7607665775097094
aF0.8341835088633848
aF0.7772974934076731
aF0.847026267044206
aF0.7976507753082158
aF1.0578118505658562
aF1.355489972357536
aF1.403851664003844
aF1.078012320371172
aF1.5747560284334117
aF1.285143967439334
aF0.4421969163311771
aF1.4485255907017354
aF1.7594237481043684
aF1.7282035431565268
aF1.3860985434675983
aF1.7182875492429184
aF1.597495686318696
aF1.720244075639172
aF1.3621190323393184
aF1.7209862440942827
aF0.9026406181366473
aF1.540581178973609
aF1.2873640479482598
aF1.5647838803839387
aF1.7433865926906404
aF1.6917915992269565
aF1.6863646450886596
aF0.781395346610515
aF1.7427835621368633
aF1.6263399088598152
aF0.2138003106062718
aF1.8162052093946546
aF1.2842043494772573
aF-0.19101107433783532
aF1.958399841113829
aF1.1322735881879775
aF1.425601988097311
aF1.7302595704687413
aF1.3921628116564362
aF1.8250614720309635
aF1.7669249317347904
aF1.5369216148794382
aF1.5700136626239498
aF1.6973134845254716
aF1.5543176814118325
aF1.7085244421976948
aF1.6967859548043258
aF1.5445550923093154
aF1.7299897674438343
aF1.445340960801016
aF1.5843302618694215
aF1.6587926299727886
aF1.7106956507627225
aF1.480476712652061
aF1.5986072454291294
aF1.498375816754799
aF1.6354006224801905
aF1.8239285139041777
aF0.9437279086720481
aF1.7891363696271225
aF2.145640208633564
aF1.928626520648835
aF1.759858928448091
aF2.0680241359752998
aF1.8566462949816016
aF2.0979736432675495
aF1.7530480143581106
aF1.918220659842578
aF2.2074045002434586
aF2.3485777751265084
aF1.9119186995322845
aF2.5242324064450465
aF2.5194314063266536
aF2.4798507740281686
aF2.470704105286901
aF2.4428200689696578
aF2.683486609599683
aF2.661068791243805
aF2.4870040640735853
aF2.6827308982795586
aF2.766987194699912
aF2.723933627842797
aF2.693262516753043
aF2.523913294353441
aF2.6634826403006033
aF2.6268063435684277
aF2.6633379103623676
aF2.8243822304517265
aF2.8542050028835595
aF2.797652551772395
aF2.834647881127944
aF2.877967305906988
aF2.6624543514132175
aF3.158498799374422
aF2.6585130422161702
aF3.0110711519041
aF3.0376492572293157
aF2.881922782914783
aF3.120936382870642
aF2.824128439814142
aF2.765756885378239
aF2.902561171407479
aF2.9076748993291766
aF2.786558524971594
aF2.5472071216949854
aF2.8476040368774873
aF2.6897535126428616
aF2.577300028799529
aF2.776238069511508
aF2.687281357769178
aF2.68212895974734
aF2.688384764648562
aF2.711309176296897
aF2.8552718171688887
aF2.8019779593730556
aF2.678710194106707
aF2.919274409976172
aF2.8024055866319952
aF2.9330144719898312
aF2.87615705308708
aF2.8826405038045646
aF2.8408976735054146
aF2.8007794178506336
aF2.653845465937088
aF2.8286484738366684
aF2.735613276107285
aF2.8812382322451637
aF2.702996896229079
aF2.8059641209135373
aF2.7433427559358603
aF2.7569453083374436
aa(lp20
F2.1216534457647685e-21
aF-2.9507450474811854e-19
aF4.117686994713072e-19
aF-1.2659702007091452e-20
aF6.817462859406255e-19
aF-8.267856855093219e-19
aF-1.0736136402593663e-18
aF1.3097487863273025e-18
aF6.304955512631812e-22
aF6.401080220795135e-21
aF1.0758010547657774e-20
aF1.9701539675604247e-18
aF1.0861639759032224e-21
aF1.3791843270418754e-22
aF3.010374599525251e-21
aF-3.6389507322991718e-22
aF-8.42094185738412e-23
aF-3.6192216366039563e-22
aF7.051498889670892e-23
aF8.548713973747129e-23
aF-1.392070938261922e-18
aF-4.21545093816696e-21
aF-2.8165022754355115e-22
aF-1.4633987249057504e-21
aF-3.543130960148919e-18
aF-4.105170960407449e-21
aF-1.1697672779337025e-21
aF3.916524010968112e-18
aF8.01297965750121e-18
aF7.521759277917206e-18
aF2.6578605551035893e-21
aF-7.793420280330647e-18
aF6.97897990357216e-18
aF-3.937628839288458e-20
aF-8.15193036798901e-21
aF-1.0170349613433565e-20
aF-3.5389492713467794e-21
aF-8.2405091735209e-23
aF6.787672046580386e-21
aF7.976430753221388e-21
aF-2.9238423389952194e-21
aF1.3587843890815698e-20
aF1.051620400574093e-21
aF-8.610577783842656e-21
aF-6.2009889464689655e-21
aF8.616215375146374e-21
aF-2.3416814692199565e-21
aF-6.378485830830863e-21
aF-3.8522003074986235e-21
aF2.0779665560255696e-21
aF-1.1134494591480319e-17
aF-1.03760211257202e-20
aF-5.503948540135458e-18
aF8.69620672921645e-22
aF-3.7690249341102333e-22
aF7.27651087624562e-19
aF7.236659382284347e-19
aF8.163713265009144e-19
aF7.605525369738472e-22
aF-9.894690026401392e-19
aF-5.42831470971662e-22
aF1.2467985839532154e-18
aF2.6713655003912875e-22
aF3.6497733990478247e-22
aF-3.1355077805227915e-22
aF9.739495250329358e-24
aF2.390732966524344e-22
aF-3.1070738256195157e-23
aF-4.830290813965288e-20
aF-1.9831199539899983e-23
aF4.93359684354191e-24
aF3.6881970466927125e-23
aF-5.098220107367469e-20
aF-1.0002857979412508e-19
aF7.904389558034356e-19
aF-4.067089907606852e-19
aF-3.2185931985244376e-23
aF-4.99680684792764e-23
aF-5.088426731181819e-23
aF4.4522085178549003e-23
aF3.9847034940783947e-19
aF-1.9835381376124448e-19
aF-1.9924482945263188e-19
aF-1.3805670108821106e-23
aF-4.1194581951997013e-19
aF1.8941886664729938e-23
aF8.1298258038488955e-22
aF-1.7776070004733937e-18
aF-1.7714550514626837e-18
aF1.7984724246298907e-18
aF1.4171026619453148e-22
aF-6.169419364130745e-22
aF4.890562745668112e-23
aF-3.656709568997507e-22
aF-1.881012021668035e-18
aF-1.8593225188262822e-18
aF-5.900431174531332e-22
aF9.501584847994754e-19
aF-4.8329735921688305e-25
aF2.434974929593586e-19
aF-6.594518630366236e-24
aF-2.992191317794583e-22
aF4.0153628445279607e-22
aF-1.4520981977751507e-21
aF-1.0149089423792076e-18
aF1.9592295854653058e-22
aF-1.674638232031601e-22
aF-1.2953180518546438e-19
aF-6.368467413454881e-20
aF-6.535833193238208e-20
aF-6.514289015690323e-20
aF-6.536198315930468e-20
aF-2.946214634637957e-24
aF-2.915868709670088e-22
aF5.333117752464935e-19
aF-1.0966412111395003e-18
aF4.543375342513993e-22
aF3.419514808906781e-23
aF6.58878892850778e-22
aF2.4198165641602873e-22
aF2.4940133341401746e-24
aF-1.4601114291799015e-19
aF4.370444031661829e-23
aF1.8734071908871683e-24
aF-7.601513240845002e-20
aF7.642558201333825e-20
aF3.058069405514468e-19
aF-6.35145670265167e-19
aF-4.152792969176373e-24
aF6.283475380996882e-19
aF-1.6136378310803627e-19
aF-6.556840995857641e-19
aF3.353617313189144e-24
aF-1.3282731859526979e-18
aF2.6572550588952005e-18
aF-2.6908416936921505e-18
aF3.074184321214679e-23
aF2.7316748442453713e-18
aF1.3624970600140434e-18
aF2.5316827834280168e-23
aF8.734799634857162e-24
aF7.427447277905156e-24
aF6.454837317575376e-23
aF-1.6157021182581772e-22
aF-3.494839897494132e-19
aF1.7886718336359976e-19
aF1.182090648424899e-22
aF-1.4074420425303158e-24
aF-1.6494863171472792e-22
aF1.4304871704628395e-18
aF-1.409647802495638e-18
aF1.6462633470329082e-22
aF8.98291753102143e-23
aF-1.4544912280560924e-18
aF1.5329671438250665e-22
aF-3.3161634911411346e-22
aF3.9104685779405746e-22
aF-4.278682547875163e-24
aF2.9044164688101964e-22
aF1.175300386188246e-22
aF-7.169751844462229e-19
aF-3.5942184102620183e-19
aF1.3908927268149105e-23
aF-3.561745799029405e-23
aF-3.6272518680243235e-19
aF-3.627312614100558e-19
aF-5.328266952095422e-23
aF-8.778979000993159e-24
aF4.24739372113311e-22
aF1.45804148724517e-18
aF-1.4646801286487909e-18
aF-1.4782555066692814e-18
aF7.305474088406282e-19
aF9.60268199913161e-23
aF8.049647117401935e-23
aF2.756222258223953e-23
aF-1.451290556073395e-18
aF-1.495375043421832e-18
aF7.290077155279373e-19
aF-5.436753628136312e-23
aF-1.9857938769143354e-23
aF-2.2298472461505428e-23
aF-2.252784008058568e-23
aF3.797896126466716e-19
aF-7.63063568527358e-19
aF1.5293936732936879e-18
aaa(lp21
(lp22
F0.0004728677187737879
aF0.0015636736197048129
aF0.003686877820054437
aF0.0038278149952428947
aF0.00577736410712659
aF0.008260427610924553
aF0.010732927726922834
aF0.014703954668327829
aF0.019418056681920082
aF0.020399936404071898
aF0.025181338085134543
aF0.035030164489569596
aF0.038770340556142945
aF0.043529565369254036
aF0.0477518931138422
aF0.05480049389495468
aF0.05703814443043956
aF0.05991172352532201
aF0.06328465512902097
aF0.06288150151380623
aF0.03897372441642385
aF0.03681126862298144
aF0.03503268223007875
aF0.03649918366830718
aF0.04946685886589864
aF0.057747848257158604
aF0.06053365047685933
aF0.07417757607788393
aF0.09138220135041943
aF0.12608248119747145
aF0.18875652206967528
aF0.23597293233699124
aF0.23662294891314728
aF0.2008687697180147
aF0.18498827207873708
aF0.20658897494463013
aF0.2170130777822495
aF0.2177509596398821
aF0.22133581146127856
aF0.20705137150420444
aF0.18107632486720104
aF0.17916955587402505
aF0.178759952325281
aF0.17452817048956273
aF0.17699394707747423
aF0.17869541696715505
aF0.17776198320062028
aF0.1815328634009139
aF0.17954327878732457
aF0.1846984064766837
aF0.1835353009211927
aF0.18171712255104308
aF0.17367697896476045
aF0.16768072274254264
aF0.12327604640512
aF0.06300675593595959
aF-0.016145090847458767
aF-0.01884347532652962
aF-0.018862773408897728
aF-0.018311124462111278
aF-0.025262354945860883
aF-0.027631898503775856
aF-0.026748441112817604
aF-0.029973111897132223
aF-0.027426303901533357
aF-0.023146104107325014
aF-0.0153189505064149
aF-0.013139267934917227
aF-0.008899926651350785
aF-0.0036265686020598518
aF0.0007162443575548454
aF0.000388603171054485
aF0.0030107694637627747
aF0.0024646026668325195
aF0.007532975045072517
aF0.011599053126581995
aF0.011973388862096234
aF0.013009318468794828
aF0.014964166941145093
aF0.015649601018330784
aF0.013845706154816265
aF0.011180657052434958
aF0.010877324112113038
aF0.0068571140113928486
aF0.006092091199234588
aF0.0033090122776074883
aF0.0011129481960699692
aF-0.0043338697551221685
aF-0.00814741020394431
aF-0.01670337024445714
aF-0.019510427836764183
aF-0.02022268019042857
aF-0.023572340475326588
aF-0.024405060343346704
aF-0.02514224631832724
aF-0.020335084584866898
aF-0.025155639040743805
aF-0.022570413590379403
aF-0.018510475461319554
aF-0.023496525187262248
aF0.0092349791853357
aF0.014626424092069379
aF0.023976746187543342
aF0.030703756967506792
aF0.030068875180991435
aF0.030222227228127726
aF0.03099040602012657
aF0.02987765895288238
aF0.027408172163054578
aF0.01649254900991134
aF0.011903066711578585
aF0.011647435069402648
aF0.012681539731034632
aF0.011576076064270016
aF0.012217754825497749
aF0.0072508459881855825
aF0.007904659797941182
aF-0.006358933016474472
aF-0.011603965193172224
aF-0.01699917700637951
aF-0.009340279078546058
aF-0.002521596543188412
aF0.003468634848106077
aF0.008916902315969288
aF0.0005045881959671408
aF0.011168511250467947
aF0.014389303292223004
aF0.016434425750927753
aF0.014714404203325019
aF0.02008406728728184
aF0.017746255914535523
aF0.01921850357301863
aF0.010617221473270929
aF0.006790753020015559
aF0.0032942762507728314
aF-0.010266468095992024
aF-0.025982058106997687
aF-0.031965929535408694
aF-0.02890828294505318
aF-0.021347208112586735
aF0.003928115780675784
aF0.008356453519798659
aF0.021824493685259308
aF0.02271586555370413
aF0.022382438191057962
aF0.022919519084293124
aF0.017464305466972606
aF0.017422749692177303
aF0.005749435866221742
aF0.001005370626259228
aF-0.0008546447024933957
aF-0.0070334575018004795
aF-0.007340927418987481
aF-0.009113447994231586
aF-0.009226762519580314
aF-0.0068092835090824986
aF-0.007481029755482576
aF-0.003553273395200174
aF-0.0060858559156128055
aF-0.008900112688505128
aF-0.008428605452539808
aF-0.0013933777654060377
aF0.007199824112388441
aF0.006312147329991624
aF0.009760712497556726
aF0.007880460001808729
aF0.011671877014369076
aF0.012481447181424944
aF0.006377903663692962
aF0.0015560723805148535
aF-0.006375389405554918
aF-0.008696393620296066
aF-0.006350608674769106
aF-0.0012048404458436261
aF-3.837566806126428e-05
aF0.003197727834414423
aF0.0008235538138986849
aF-0.0014797087678567347
aF-0.004552592033908947
aF0.000827801864116555
aF0.010021777833001457
aF0.016740851047669463
aF0.022739061658093508
aF0.02085162323710932
aF0.017333152260397486
aF0.006713770944406229
aa(lp23
F0.0
aF0.0
aF0.0
aF0.0
aF0.0
aF0.0
aF0.0
aF0.0
aF0.0
aF0.0
aF0.0
aF0.0
aF0.0
aF0.0
aF0.0
aF0.0
aF0.0
aF0.0
aF0.0
aF0.0
aF0.0
aF0.0
aF0.0
aF0.0
aF0.0
aF0.0
aF0.0
aF0.0
aF0.0
aF0.0
aF0.0
aF0.0
aF0.0
aF0.0
aF0.0
aF0.0
aF0.0
aF0.0
aF0.0
aF0.0
aF0.0
aF0.0
aF0.0
aF0.0
aF0.0
aF0.0
aF0.0
aF0.0
aF0.0
aF0.0
aF0.0
aF0.0
aF0.0
aF0.0
aF0.0
aF0.0
aF0.0
aF0.0
aF0.0
aF0.0
aF0.0
aF0.0
aF0.0
aF0.0
aF0.0
aF0.0
aF0.0
aF0.0
aF0.0
aF0.0
aF0.0
aF0.0
aF0.0
aF0.0
aF0.0
aF0.0
aF0.0
aF0.0
aF0.0
aF0.0
aF0.0
aF0.0
aF0.0
aF0.0
aF0.0
aF0.0
aF0.0
aF0.0
aF0.0
aF0.0
aF0.0
aF0.0
aF0.0
aF0.0
aF0.0
aF0.0
aF0.0
aF0.0
aF0.0
aF0.0
aF0.0
aF0.0
aF0.0
aF0.0
aF0.0
aF0.0
aF0.0
aF0.0
aF0.0
aF0.0
aF0.0
aF0.0
aF0.0
aF0.0
aF0.0
aF0.0
aF0.0
aF0.0
aF0.0
aF0.0
aF0.0
aF0.0
aF0.0
aF0.0
aF0.0
aF0.0
aF0.0
aF0.0
aF0.0
aF0.0
aF0.0
aF0.0
aF0.0
aF0.0
aF0.0
aF0.0
aF0.0
aF0.0
aF0.0
aF0.0
aF0.0
aF0.0
aF0.0
aF0.0
aF0.0
aF0.0
aF0.0
aF0.0
aF0.0
aF0.0
aF0.0
aF0.0
aF0.0
aF0.0
aF0.0
aF0.0
aF0.0
aF0.0
aF0.0
aF0.0
aF0.0
aF0.0
aF0.0
aF0.0
aF0.0
aF0.0
aF0.0
aF0.0
aF0.0
aF0.0
aF0.0
aF0.0
aF0.0
aF0.0
aF0.0
aF0.0
aF0.0
aF0.0
aF0.0
aF0.0
aF0.0
aF0.0
aF0.0
aF0.0
aF0.0
aF0.0
aa(lp24
F0.0
aF0.0
aF0.0
aF0.0
aF0.0
aF0.0
aF0.0
aF0.0
aF0.0
aF0.0
aF0.0
aF0.0
aF0.0
aF0.0
aF0.0
aF0.0
aF0.0
aF0.0
aF0.0
aF0.0
aF0.0
aF0.0
aF0.0
aF0.0
aF0.0
aF0.0
aF0.0
aF0.0
aF0.0
aF0.0
aF0.0
aF0.0
aF0.0
aF0.0
aF0.0
aF0.0
aF0.0
aF0.0
aF0.0
aF0.0
aF0.0
aF0.0
aF0.0
aF0.0
aF0.0
aF0.0
aF0.0
aF0.0
aF0.0
aF0.0
aF0.0
aF0.0
aF0.0
aF0.0
aF0.0
aF0.0
aF0.0
aF0.0
aF0.0
aF0.0
aF0.0
aF0.0
aF0.0
aF0.0
aF0.0
aF0.0
aF0.0
aF0.0
aF0.0
aF0.0
aF0.0
aF0.0
aF0.0
aF0.0
aF0.0
aF0.0
aF0.0
aF0.0
aF0.0
aF0.0
aF0.0
aF0.0
aF0.0
aF0.0
aF0.0
aF0.0
aF0.0
aF0.0
aF0.0
aF0.0
aF0.0
aF0.0
aF0.0
aF0.0
aF0.0
aF0.0
aF0.0
aF0.0
aF0.0
aF0.0
aF0.0
aF0.0
aF0.0
aF0.0
aF0.0
aF0.0
aF0.0
aF0.0
aF0.0
aF0.0
aF0.0
aF0.0
aF0.0
aF0.0
aF0.0
aF0.0
aF0.0
aF0.0
aF0.0
aF0.0
aF0.0
aF0.0
aF0.0
aF0.0
aF0.0
aF0.0
aF0.0
aF0.0
aF0.0
aF0.0
aF0.0
aF0.0
aF0.0
aF0.0
aF0.0
aF0.0
aF0.0
aF0.0
aF0.0
aF0.0
aF0.0
aF0.0
aF0.0
aF0.0
aF0.0
aF0.0
aF0.0
aF0.0
aF0.0
aF0.0
aF0.0
aF0.0
aF0.0
aF0.0
aF0.0
aF0.0
aF0.0
aF0.0
aF0.0
aF0.0
aF0.0
aF0.0
aF0.0
aF0.0
aF0.0
aF0.0
aF0.0
aF0.0
aF0.0
aF0.0
aF0.0
aF0.0
aF0.0
aF0.0
aF0.0
aF0.0
aF0.0
aF0.0
aF0.0
aF0.0
aF0.0
aF0.0
aF0.0
aF0.0
aF0.0
aF0.0
aa(lp25
F0.0032094446942210197
aF0.004948900081217289
aF0.007842320017516613
aF0.009566218592226505
aF0.011610309593379498
aF0.010021401569247246
aF0.017323775216937065
aF0.02164158597588539
aF0.022519122809171677
aF0.02067016437649727
aF0.0329657606780529
aF0.03589949756860733
aF0.04747285321354866
aF0.04930485039949417
aF0.04720646142959595
aF0.06182087957859039
aF0.06085015460848808
aF0.06069377809762955
aF0.06126023828983307
aF0.07315125316381454
aF0.04373627528548241
aF0.039003368467092514
aF0.039767347276210785
aF0.046883367002010345
aF0.057852838188409805
aF0.06928949058055878
aF0.08008284121751785
aF0.09854621440172195
aF0.12244600802659988
aF0.18759779632091522
aF0.23148168623447418
aF0.23725171387195587
aF0.20698951184749603
aF0.19401052594184875
aF0.21506957709789276
aF0.22352343797683716
aF0.22136326134204865
aF0.2170727550983429
aF0.21762052178382874
aF0.19535115361213684
aF0.18481704592704773
aF0.18248973786830902
aF0.17877571284770966
aF0.18057480454444885
aF0.18138106167316437
aF0.18101045489311218
aF0.18456128239631653
aF0.1867077350616455
aF0.1908423900604248
aF0.18337327241897583
aF0.18485099077224731
aF0.17625808715820312
aF0.1666538566350937
aF0.12900900840759277
aF0.07643114030361176
aF-0.019406329840421677
aF-0.015418129973113537
aF-0.01598157361149788
aF-0.01737779565155506
aF-0.025226181373000145
aF-0.025707222521305084
aF-0.024809451773762703
aF-0.018316645175218582
aF-0.02794807404279709
aF-0.025553274899721146
aF-0.0169899370521307
aF-0.01388915628194809
aF-0.005648617632687092
aF0.0006480829906649888
aF-0.002910883631557226
aF-0.0008265147916972637
aF0.009427875280380249
aF0.005551360547542572
aF0.008909576572477818
aF0.016976840794086456
aF0.010233765468001366
aF0.015274018049240112
aF0.01136772520840168
aF0.013154956512153149
aF0.014216690324246883
aF0.006727765779942274
aF0.015280164778232574
aF0.005233667325228453
aF0.011204040609300137
aF0.007665098179131746
aF0.0017897067591547966
aF-0.008679674938321114
aF-0.012148084118962288
aF-0.012838114984333515
aF-0.020611383020877838
aF-0.015167766250669956
aF-0.02283189259469509
aF-0.02371319942176342
aF-0.026357991620898247
aF-0.02105659432709217
aF-0.024566523730754852
aF-0.017972756177186966
aF-0.015906287357211113
aF-0.01364773977547884
aF-0.005679955706000328
aF0.014347869902849197
aF0.027086904272437096
aF0.026558877900242805
aF0.030376598238945007
aF0.03635688126087189
aF0.03946380317211151
aF0.025464192032814026
aF0.02484426647424698
aF0.020149214193224907
aF0.009548373520374298
aF0.016907261684536934
aF0.011350964196026325
aF0.011754765175282955
aF0.014903659000992775
aF0.011038717813789845
aF0.009175007231533527
aF-0.007442793343216181
aF-0.011748936958611012
aF-0.008975592441856861
aF-0.013175305910408497
aF-0.014706839807331562
aF0.003226708387956023
aF0.0048723118379712105
aF0.0033070745412260294
aF0.013466008007526398
aF0.011004113592207432
aF0.013434172607958317
aF0.010560930706560612
aF0.018701652064919472
aF0.017475541681051254
aF0.022229276597499847
aF0.0048340666107833385
aF0.007328175473958254
aF0.002730392152443528
aF-0.011443926021456718
aF-0.022475233301520348
aF-0.02505331300199032
aF-0.03085312619805336
aF-0.017304571345448494
aF-0.017545875161886215
aF0.017318109050393105
aF0.025211645290255547
aF0.025037856772542
aF0.023705491796135902
aF0.013935768976807594
aF0.017910292372107506
aF0.02516639418900013
aF0.015819625928997993
aF0.007286101579666138
aF-0.003326176665723324
aF0.004221469629555941
aF-0.007568024564534426
aF-0.014867757447063923
aF-0.015280203893780708
aF0.00040167622501030564
aF-0.011314318515360355
aF-0.002464979188516736
aF-0.011653712950646877
aF-0.006027319934219122
aF-0.009966296143829823
aF-0.005119208246469498
aF0.005502008367329836
aF0.013573694042861462
aF0.014270885847508907
aF0.00797757226973772
aF0.008570883423089981
aF0.012717608362436295
aF0.0116317393258214
aF0.006093527656048536
aF-0.005651525221765041
aF-0.0035871330182999372
aF-0.010884414426982403
aF-0.0026486145798116922
aF0.001267736777663231
aF0.0025630861055105925
aF0.0011400235816836357
aF-0.00137449917383492
aF-9.506305650575086e-05
aF-0.0005212629912421107
aF0.001930357189849019
aF0.017683181911706924
aF0.023756621405482292
aF0.022457318380475044
aF0.020291225984692574
aF0.011839858256280422
aF0.002211956540122628
aaa(lp26
(lp27
F0.002163400599982583
aF0.0033920011917486148
aF0.0050201477169112
aF0.007197278094756637
aF0.008951108225355497
aF0.011224707541821869
aF0.014517086838790681
aF0.019424597106842346
aF0.025597639457314792
aF0.033393882627436505
aF0.039380926037416025
aF0.05266483377334103
aF0.06908447478615302
aF0.09399872975192095
aF0.11381353205561588
aF0.1314975271918836
aF0.14438705739510474
aF0.16545777028811268
aF0.18673207901339406
aF0.20453692928160425
aF0.2468980266877067
aF0.25530207476989364
aF0.262680367926317
aF0.27370489814118204
aF0.3179518816488632
aF0.33355056522717624
aF0.3555722933758322
aF0.37414358152897065
aF0.40051512373459863
aF0.4330379612554703
aF0.4835541061565226
aF0.552466777831215
aF0.6203167321418446
aF0.8342744386045682
aF0.8898308763870661
aF0.9501912435758593
aF0.987735639849443
aF1.0570532844045282
aF1.1231233388104191
aF1.1875114389316548
aF1.3180799057850967
aF1.3695927030434083
aF1.4000202485237707
aF1.435624592530968
aF1.487083511278901
aF1.523785138723759
aF1.5777719316009788
aF1.6083068554491389
aF1.663079366841377
aF1.7000228838661562
aF1.7555927263391733
aF1.7941627997938845
aF1.847328884261539
aF1.8818710098317784
aF1.9238769945838796
aF1.9480952983562243
aF1.9547419265172077
aF1.9524340088144505
aF1.9466374914925992
aF1.944168067092331
aF1.933068119620814
aF1.92884841693844
aF1.9206182126563058
aF1.9155738526199184
aF1.906347221836602
aF1.898976382167419
aF1.8943456052713004
aF1.8905228855236624
aF1.891453665103199
aF1.8894678431201646
aF1.886635032502882
aF1.884549057036677
aF1.884379973917188
aF1.8838291492094577
aF1.8846644361932485
aF1.8966837816284183
aF1.8977023056033189
aF1.9018989700086208
aF1.904882165397812
aF1.9087258262511855
aF1.9114602105397578
aF1.9150039957570142
aF1.9171226169182187
aF1.919217686158923
aF1.9189460279242265
aF1.9202530237239193
aF1.9241578042533576
aF1.9223187406118196
aF1.9197820695529955
aF1.9196736293862637
aF1.9170465961573548
aF1.9093838973361548
aF1.9019577529439533
aF1.8978146840124892
aF1.8867920942064471
aF1.8802829258295861
aF1.8769332507824361
aF1.8707040454812893
aF1.8682926639413224
aF1.8677033294776761
aF1.8723159412123787
aF1.8738399020052772
aF1.878511193520433
aF1.886812883067366
aF1.8979210354794782
aF1.9083734321795878
aF1.9126697504010624
aF1.920184968713981
aF1.9271300729259668
aF1.9329575900684406
aF1.9336711307987255
aF1.9374661126619206
aF1.9423008668272275
aF1.944000234467806
aF1.9434985368137916
aF1.9464447455483032
aF1.9471973924517445
aF1.9441929938734295
aF1.9446549702402738
aF1.940660154880346
aF1.9323480657802612
aF1.9289608809671936
aF1.9276470266817727
aF1.9257234681161401
aF1.9260050180639336
aF1.9218910619332947
aF1.9236750533162563
aF1.9227761487416102
aF1.9214491404684222
aF1.927482313020992
aF1.9300341282777707
aF1.933955623522723
aF1.9362244589627478
aF1.9377605612328923
aF1.9326521587438292
aF1.9342896807992738
aF1.9313817381078675
aF1.9208537725164725
aF1.917551774078901
aF1.9148749905753886
aF1.90801199726305
aF1.913450069926975
aF1.9150174596089098
aF1.9159597794567524
aF1.9268824506894708
aF1.922838361620013
aF1.9271020591533876
aF1.9255999547589269
aF1.928051827458993
aF1.9273563618373848
aF1.9216445996579627
aF1.922457839558514
aF1.9182422539164297
aF1.91809488663415
aF1.9184083325103942
aF1.9150275867729456
aF1.9162574083993467
aF1.9154385606985207
aF1.9185991243543319
aF1.9175493476281986
aF1.911842421802937
aF1.9115570384922644
aF1.910695780120602
aF1.9114948305278956
aF1.9172740516362368
aF1.916699920581021
aF1.9185309449435113
aF1.9244930963436984
aF1.924932400789978
aF1.9251498053261658
aF1.9221387140900645
aF1.9191791823164748
aF1.9212642738560146
aF1.9206353808786019
aF1.9182025209315265
aF1.9166797776241027
aF1.918350578283476
aF1.92126305680401
aF1.9201147609616722
aF1.9231119259664438
aF1.9280592271356765
aF1.9290304760078336
aF1.9352055468346356
aF1.9394670475489133
aF1.9429102997038665
aF1.9463904941433512
aa(lp28
F0.0
aF0.0
aF0.0
aF0.0
aF0.0
aF0.0
aF0.0
aF0.0
aF0.0
aF0.0
aF0.0
aF0.0
aF0.0
aF0.0
aF0.0
aF0.0
aF0.0
aF0.0
aF0.0
aF0.0
aF0.0
aF0.0
aF0.0
aF0.0
aF0.0
aF0.0
aF0.0
aF0.0
aF0.0
aF0.0
aF0.0
aF0.0
aF0.0
aF0.0
aF0.0
aF0.0
aF0.0
aF0.0
aF0.0
aF0.0
aF0.0
aF0.0
aF0.0
aF0.0
aF0.0
aF0.0
aF0.0
aF0.0
aF0.0
aF0.0
aF0.0
aF0.0
aF0.0
aF0.0
aF0.0
aF0.0
aF0.0
aF0.0
aF0.0
aF0.0
aF0.0
aF0.0
aF0.0
aF0.0
aF0.0
aF0.0
aF0.0
aF0.0
aF0.0
aF0.0
aF0.0
aF0.0
aF0.0
aF0.0
aF0.0
aF0.0
aF0.0
aF0.0
aF0.0
aF0.0
aF0.0
aF0.0
aF0.0
aF0.0
aF0.0
aF0.0
aF0.0
aF0.0
aF0.0
aF0.0
aF0.0
aF0.0
aF0.0
aF0.0
aF0.0
aF0.0
aF0.0
aF0.0
aF0.0
aF0.0
aF0.0
aF0.0
aF0.0
aF0.0
aF0.0
aF0.0
aF0.0
aF0.0
aF0.0
aF0.0
aF0.0
aF0.0
aF0.0
aF0.0
aF0.0
aF0.0
aF0.0
aF0.0
aF0.0
aF0.0
aF0.0
aF0.0
aF0.0
aF0.0
aF0.0
aF0.0
aF0.0
aF0.0
aF0.0
aF0.0
aF0.0
aF0.0
aF0.0
aF0.0
aF0.0
aF0.0
aF0.0
aF0.0
aF0.0
aF0.0
aF0.0
aF0.0
aF0.0
aF0.0
aF0.0
aF0.0
aF0.0
aF0.0
aF0.0
aF0.0
aF0.0
aF0.0
aF0.0
aF0.0
aF0.0
aF0.0
aF0.0
aF0.0
aF0.0
aF0.0
aF0.0
aF0.0
aF0.0
aF0.0
aF0.0
aF0.0
aF0.0
aF0.0
aF0.0
aF0.0
aF0.0
aF0.0
aF0.0
aF0.0
aF0.0
aF0.0
aF0.0
aF0.0
aF0.0
aF0.0
aF0.0
aF0.0
aF0.0
aF0.0
aF0.0
aF0.0
aa(lp29
F0.0026280455822448845
aF0.004085483972885552
aF0.005945306750617348
aF0.008116590597674356
aF0.009971008649068235
aF0.0121925264914319
aF0.015927416574925617
aF0.021047839875649357
aF0.027805387405156094
aF0.03640219032140269
aF0.043887412857346896
aF0.05872090704939647
aF0.0798514968308197
aF0.10190579695114024
aF0.12067335615934596
aF0.1386980925225597
aF0.14954284466441004
aF0.17288970069411302
aF0.19260611710359457
aF0.20940490685146007
aF0.2495174789860837
aF0.25688978871410034
aF0.26542370829870965
aF0.3092786887884041
aF0.3239026337995443
aF0.342618689351739
aF0.36210642578041247
aF0.38263719391269174
aF0.41197251303753224
aF0.4508272255781321
aF0.5085950099527551
aF1.2252025137905476
aF1.3263812762622749
aF2.160574842095077
aF1.2536161841442799
aF0.9514407484646847
aF1.4847711030857138
aF1.440599072355488
aF1.7219591357075166
aF1.5840063951280172
aF1.6119614008019232
aF1.5787101862015462
aF1.6159717677810712
aF1.6535311981022123
aF1.574918267210177
aF1.5803726348913778
aF1.6526238369798145
aF1.583394654392721
aF1.5837637000350637
aF1.5829548161072782
aF1.6305710976645913
aF1.3979905532180914
aF1.736232855863352
aF1.1678715589591881
aF1.2836204604326
aF1.725777930909463
aF1.16971167166877
aF1.1529262135426566
aF0.8778924907124258
aF1.1913250414088066
aF1.3598171707413207
aF1.8103899534953483
aF0.7937993372150143
aF1.727767832724728
aF0.9308133814635902
aF2.8803644818040985
aF2.1331202531339204
aF1.703371872432766
aF1.733862641543154
aF2.2746592426039314
aF1.9219794621939756
aF2.0879529641791246
aF1.9627358677451012
aF2.3020520823861865
aF1.879567539197322
aF2.6329615667226682
aF2.1341169511458937
aF2.371755714987769
aF2.1331430519123264
aF1.9505252654711154
aF1.9347000715967384
aF1.9644763257454725
aF2.6973613654774984
aF1.9513910201149478
aF2.104347630854469
aF3.0320487940974448
aF1.924433246158202
aF2.4567725036140966
aF-3.044933137748382
aF1.876810293798962
aF2.548677259910579
aF2.390578033392306
aF2.1572554164325606
aF2.4254198709956225
aF2.1321492000340942
aF2.180933058432108
aF2.3677595569056678
aF2.3391352372900194
aF2.2598993236899974
aF2.3584183259696294
aF2.287424808105617
aF2.29133761960399
aF2.410381009560863
aF2.2789735518812684
aF2.4693232348631744
aF2.4071457864623427
aF2.355565770467151
aF2.332545757130148
aF2.4567504054879636
aF2.4182127516632423
aF2.46051050821209
aF2.393180552756014
aF2.3091386327267434
aF2.7469164187709874
aF2.3430328910509597
aF2.091891971387486
aF2.2668537891498826
aF2.3881003293874756
aF2.1819238685096223
aF2.317182156282296
aF2.226452881958545
aF2.429258935051606
aF2.330944037418324
aF2.207324200386906
aF2.1634033390290694
aF2.3886338267673994
aF2.056881491909338
aF2.087741006637054
aF2.07439549321092
aF2.1584897925589073
aF2.177130692872777
aF2.059645890659337
aF2.038068145155721
aF2.168240671211173
aF2.0836107989584516
aF2.0617965592524214
aF2.038245304215722
aF2.115744466268764
aF2.213655350868697
aF2.123698321014202
aF2.1699455431088452
aF2.1676829105690945
aF2.0558430995746777
aF2.0329479590036947
aF2.1014240137210765
aF2.1056284622936245
aF2.0749379134143124
aF2.208770626406223
aF1.882408924249814
aF2.192809898343621
aF1.9806462983283395
aF1.9903771145957339
aF2.097636752997819
aF1.9572000901747872
aF2.0956180827291995
aF2.1264214977247744
aF2.045457036376531
aF2.0558977446246582
aF2.114186812261549
aF2.25051913362603
aF2.1039526204711216
aF2.194808956862709
aF2.26508982512008
aF2.1558488888136806
aF2.221413754504972
aF2.2208759687095014
aF2.214703145037674
aF2.198440945750431
aF2.111364761624165
aF2.145354029467471
aF2.2179378048625176
aF2.1151711120634067
aF2.1679953184206613
aF2.0995191192125016
aF2.1090108039954893
aF2.113056971482587
aF2.149263500072771
aF2.160239842195798
aF2.2375886602489636
aF2.1644638591373537
aF2.2207115632752057
aF2.1773560462930743
aF2.253292732733867
aF2.2064998813843317
aF2.2244813103929397
aF2.2384262812531603
aa(lp30
F3.043857089309192
aF3.0448475794644705
aF3.046660484496797
aF3.0485649380574493
aF3.0508100462853824
aF3.055847988457367
aF3.066172663788022
aF3.073529882172813
aF3.083677716455813
aF3.0918003510723993
aF3.1001207581379226
aF3.114226579724433
aF3.1314426670056883
aF-3.1353714004573923
aF-3.116219455626211
aF-3.0951918920227435
aF-3.0786368904633634
aF-3.0597569220810668
aF-3.0363501149640535
aF-3.019816925415316
aF-2.976083789014645
aF-2.965446200280801
aF-2.956220147625524
aF-2.91221728510321
aF-2.897613918913245
aF-2.876012316258169
aF-2.8589395020577153
aF-2.8350315511353434
aF-2.8041129849960047
aF-2.757742934117445
aF-2.7012102426136586
aF-2.623258227292149
aF-2.388923513797106
aF-2.347164488137638
aF-2.296211574477375
aF-2.234233864594935
aF-2.1806991815315833
aF-2.12188911016172
aF-2.049691393755529
aF-1.9912900502618334
aF-1.8728817951362986
aF-1.8207128400870543
aF-1.7851439993455884
aF-1.7390739098269903
aF-1.7027787688841598
aF-1.6609449195238914
aF-1.6131532365600245
aF-1.570513784268694
aF-1.5275332865669975
aF-1.4783302302426555
aF-1.4349768690127458
aF-1.3926802582646332
aF-1.347327164961517
aF-1.3079751200041299
aF-1.2821253766960665
aF-1.2686517942354445
aF-1.271881584911701
aF-1.2750927298852908
aF-1.2799611927532364
aF-1.2842452275957121
aF-1.29540442411127
aF-1.3019717601413048
aF-1.307233084001097
aF-1.3128186627178398
aF-1.3188640838760142
aF-1.3252266231537253
aF-1.3280804459118967
aF-1.3304786243675188
aF-1.3309365655724468
aF-1.3305794280334398
aF-1.3300474335616645
aF-1.328625231583866
aF-1.3278322395880733
aF-1.327095304961655
aF-1.3186530309809394
aF-1.3159645448913533
aF-1.3122143328121052
aF-1.308757189708865
aF-1.3052699892355182
aF-1.3020646870468746
aF-1.2959059873769672
aF-1.2931182710835774
aF-1.2908424880391358
aF-1.2895710979790016
aF-1.2889026791852638
aF-1.2884400904114057
aF-1.2888200323443184
aF-1.2902462006092505
aF-1.2932220901416307
aF-1.2981331854653138
aF-1.3016528688971354
aF-1.3080723394545077
aF-1.3128380860486903
aF-1.320314773103021
aF-1.3276651042143819
aF-1.3335849322327231
aF-1.3385199213205459
aF-1.3423554365900836
aF-1.3457340627787862
aF-1.347778507451725
aF-1.3404781371420231
aF-1.3377390914332874
aF-1.3315476819709724
aF-1.322874848353213
aF-1.3130403441304306
aF-1.3042831145373002
aF-1.2984872595863661
aF-1.2926326636539387
aF-1.2866464528250021
aF-1.28160555699621
aF-1.2787429398380028
aF-1.2731144635617913
aF-1.2702142381513124
aF-1.2669080987529273
aF-1.2650967196171135
aF-1.2633994693332238
aF-1.262396930722951
aF-1.2642592903924703
aF-1.2676384131419174
aF-1.2715201269025882
aF-1.2787259523890515
aF-1.2788451254984152
aF-1.277833165553331
aF-1.2766926616148813
aF-1.2715776252794246
aF-1.269909417988929
aF-1.26790628882674
aF-1.2643048992412276
aF-1.2624685269155898
aF-1.2580499934444513
aF-1.2532654800352323
aF-1.2495019227823134
aF-1.2473318782588598
aF-1.2463001268366847
aF-1.2480707230371613
aF-1.2517679731168476
aF-1.2574256650767341
aF-1.2640673947771572
aF-1.2685081906876499
aF-1.2727261542866941
aF-1.2721040390304905
aF-1.2692890144595446
aF-1.2638982429512948
aF-1.2585011176257048
aF-1.2536113505534947
aF-1.2498737878369583
aF-1.2457699369283308
aF-1.2424723257411856
aF-1.2420085154503941
aF-1.243365427489129
aF-1.244929667661085
aF-1.248258898160243
aF-1.2517608150647483
aF-1.2541216109287412
aF-1.2568784547239216
aF-1.2579945579611376
aF-1.2596367798888513
aF-1.2614216064764006
aF-1.2638271873474867
aF-1.266588089537036
aF-1.271841021394374
aF-1.271787502652367
aF-1.270358824238068
aF-1.2680490431242963
aF-1.2669473899837005
aF-1.2654285163090613
aF-1.2613877078303535
aF-1.2598639379805554
aF-1.2578918210654415
aF-1.2576963622406574
aF-1.258981406627107
aF-1.2605265263547618
aF-1.2616586219999908
aF-1.2610761435755522
aF-1.2605633387986839
aF-1.2599309446223783
aF-1.260004458567409
aF-1.2610293538330999
aF-1.2613033308918502
aF-1.2616298008705646
aF-1.2566160296948048
aF-1.2535909760974528
aF-1.24647068003402
aF-1.2429598636171737
aF-1.2401235933134425
aF-1.2384662848854588
aaa.