(lp0
(lp1
(lp2
F0.1443560238945943
aF0.31787708280658533
aF0.4045093088755452
aF0.46727648255707716
aF0.5311794626483184
aF0.5629971590793454
aF0.5791985783605655
aF0.5888749727712306
aF0.5941303450608153
aF0.468484597618985
aF0.3484330146383614
aF0.28351501815210545
aF0.25223004416990047
aF0.2452809658494737
aF0.2623698107252651
aF0.27378802520394707
aF0.25043129498166605
aF0.15790566595194103
aF0.07402343379787146
aF0.0341210337547128
aF-0.24682100403320872
aF-0.46806933422479907
aF-0.6775683966931738
aF-0.9155404919445643
aF-1.19871121505142
aF-1.5734914910291784
aF-1.9405888167929994
aF-2.1647464277617923
aF-2.5542896297443
aF-3.075491219073074
aF-3.4603557288862747
aF-3.707847061489725
aF-3.8913022008962646
aF-4.138349798817411
aF-4.415529052371093
aF-4.639261792744831
aF-4.857049165023073
aF-5.254199464829846
aF-5.754132814179592
aF-6.332672953667767
aF-7.48706442696284
aF-8.164297027024826
aF-8.627478559750584
aF-9.396875014818285
aF-10.207010239440573
aF-10.927776348116529
aF-11.730201554301402
aF-12.224027195158964
aF-12.67221387978454
aF-13.246247981557277
aF-13.67131028736049
aF-14.026394641886064
aF-14.238230467892745
aF-14.506969577540765
aF-14.660128840670795
aF-14.95220718817547
aF-15.6297768962984
aF-16.0291197425358
aF-16.46038777175268
aF-16.836805281110777
aF-17.905813092105316
aF-18.452088279922396
aF-19.008111920390057
aF-19.557461528643756
aF-20.09851129553757
aF-21.771094120744525
aF-22.27851359717496
aF-22.789042866169517
aF-23.140359823275862
aF-23.532304014027563
aF-24.290550084811674
aF-24.949051113994205
aF-25.779255869165333
aF-26.692988771058715
aF-27.360327221374465
aF-28.42465524344117
aF-29.55517541913175
aF-30.331403628109317
aF-31.08952960983265
aF-32.17801464635329
aF-33.91253133946886
aF-34.96673282799103
aF-36.12778828727234
aF-36.969917901174846
aF-38.119656077349724
aF-38.96618265520295
aF-40.13735966496494
aF-40.92793346457616
aF-42.29619129459865
aF-43.62212711096439
aF-45.54287713591611
aF-47.489385464522734
aF-49.1322930943651
aF-50.74633268242324
aF-51.79095065961569
aF-52.865757271024165
aF-53.94735274548155
aF-54.98138662461589
aF-56.6463335770721
aF-58.38297809920803
aF-61.594068888016324
aF-63.1313020146017
aF-64.62899201682252
aF-65.62777263616026
aF-67.17764481415026
aF-68.79719152374922
aF-70.28012071712024
aF-71.77977476324261
aF-72.76690915965715
aF-74.22518270608714
aF-75.61003597626534
aF-76.94923406427705
aF-77.78611917733178
aF-82.9829422809096
aF-83.92147605005061
aF-85.50823332647153
aF-87.0894940872193
aF-88.711517206552
aF-89.73918536235755
aF-91.43330175972947
aF-94.40560597544687
aF-96.21095681050595
aF-97.93914880638462
aF-99.00802236632643
aF-100.51956297002842
aF-101.45191164066304
aF-102.85232180893351
aF-104.09375344987507
aF-104.9210653597138
aF-105.75125535818641
aF-106.8864035885973
aF-107.91468140625899
aF-108.81868272149177
aF-109.32100256236694
aF-110.00688001199754
aF-110.50670890235354
aF-110.97118129313793
aF-111.69781617505838
aF-112.5364735532091
aF-113.11186857164326
aF-114.67781474133558
aF-115.701759054006
aF-116.7815994749874
aF-117.82128003306094
aF-118.8974290394184
aF-119.68522666014779
aF-120.45729550855714
aF-121.30335854419204
aF-122.06798780101319
aF-122.89605999142667
aF-123.77389756152328
aF-124.93364926693697
aF-125.79598384121002
aF-127.16890021248014
aF-128.13236855686188
aF-129.0582410405326
aF-130.6420139386449
aF-131.66508239477807
aF-133.3427917931072
aF-134.435759271899
aF-137.77187587069974
aF-139.35671517404333
aF-141.04080591052323
aF-142.18500510512882
aF-143.2190154237766
aF-144.82347015137054
aF-146.45789448618288
aF-147.5405677624539
aF-149.2690976200491
aF-150.97523672755753
aF-152.606932221311
aF-153.69112986838348
aF-155.32744374187362
aF-156.36358181024787
aF-157.98018758493984
aF-159.5671581606274
aF-160.55475909949314
aF-161.5500950991668
aF-162.53083198376316
aF-163.9331525483594
aF-166.78289217985485
aF-167.72840662718585
aF-172.81420459575725
aF-173.74443077140558
aF-175.22862156909122
aF-176.20987149791114
aF-177.6575239609274
aF-179.10151222246233
aF-180.05298780668969
aF-180.98975697251282
aF-181.95664628736478
aF-182.9150773297836
aF-184.3298376440325
aF-185.26624533730455
aF-190.1280409733131
aF-191.0312331968297
aF-191.97809609316766
aF-192.90988915246209
aF-197.18064651875167
aF-198.55756954452724
aF-200.90997446598612
aF-202.31507266200472
aF-203.53097309344028
aF-204.35428046907597
aF-205.17444268916964
aF-205.96420413547486
aF-206.75207751363314
aF-207.55022025956634
aF-208.31063505280105
aF-209.09735636113888
aF-209.80798304418056
aF-210.57125668177443
aF-211.30880674393416
aF-212.04995862628894
aF-213.225462069745
aF-217.1445104937414
aF-218.03901570559992
aF-218.91136410792095
aF-220.14823727119906
aF-220.9503795610763
aF-223.06678588090531
aF-223.83859480064615
aF-224.63506285891793
aF-225.42998620812097
aF-226.18221364258306
aF-226.84134056030737
aF-230.39192365393947
aF-233.7591897798454
aF-234.42883540801023
aF-235.18909879482683
aF-235.87724739664452
aF-236.9557140141841
aF-237.77767141379834
aF-239.04741977405112
aF-239.78001331435377
aF-240.56310020484764
aF-241.81005856823757
aF-242.6068793755643
aF-243.36407417395924
aF-244.15542630425495
aF-246.47996536875044
aF-247.26939250698112
aF-248.11969387650362
aF-248.8373039854587
aF-249.5846167198523
aF-250.40453969144943
aF-251.224653230136
aF-252.50278042975356
aF-253.35814224388147
aF-254.25300433972612
aF-255.13237077487588
aF-256.01765602562585
aF-256.93067474850113
aF-257.81109869951814
aF-258.68825438663123
aF-259.6604969210201
aF-261.11023635484435
aF-262.5569978451037
aF-264.0060497240068
aF-264.9606323761416
aF-268.05093629667806
aF-269.1470891157901
aF-271.34405225870495
aF-272.3867683184511
aF-273.3839756810726
aF-274.35524977402247
aa(lp3
F0.6201703456970853
aF0.6202769554522415
aF0.6009822969073415
aF0.6205227831993059
aF0.6015321478542107
aF0.6016501679983256
aF0.6017920777922062
aF0.6018504639332933
aF0.18393512232125087
aF0.18402455216306776
aF0.18397838289344634
aF0.20326613868627608
aF0.202499147034355
aF0.22160216883959746
aF0.24301457901210405
aF0.2879330811861299
aF-0.061898903151233114
aF0.04691529948222489
aF-0.30257981770965436
aF-0.22086196063816335
aF-0.8469771341851731
aF-1.1891113963654918
aF-1.494605557608008
aF-1.400364946838913
aF-1.7228078412548755
aF-2.484888279627787
aF-2.82476206862768
aF-2.763929293574644
aF-3.5176676251237713
aF-3.8480908469384825
aF-4.160431048852923
aF-4.432284615099082
aF-4.308355861663616
aF-4.530307534133313
aF-5.143756585539608
aF-5.050884224971769
aF-5.741109824436345
aF-5.993739547013878
aF-6.679989831515038
aF-7.3600903275984555
aF-8.786164036982914
aF-9.502413141389722
aF-9.877999164434756
aF-11.05433640482106
aF-11.471623897271256
aF-12.727307021973319
aF-13.1863248132141
aF-13.60618529481322
aF-14.083711793559765
aF-14.560704059990005
aF-14.638133683108373
aF-15.112309135860496
aF-15.189423325896222
aF-15.663714916824208
aF-16.13625088733544
aF-16.590799288702268
aF-17.059564417935
aF-17.52667501605991
aF-17.99353031225013
aF-18.446364583223076
aF-19.39753308683315
aF-20.308852539341903
aF-20.82268858752346
aF-21.31913147172382
aF-21.813894696505162
aF-23.343764567358946
aF-24.27548239102691
aF-24.789797499071515
aF-25.266781554376085
aF-25.745952953613795
aF-26.678820988039845
aF-27.62844462383512
aF-28.58360265368098
aF-29.972962519256345
aF-30.48897268516362
aF-31.876211090140615
aF-32.86859997979644
aF-33.820356260390284
aF-34.33508950803603
aF-35.306426947394314
aF-37.228733117537075
aF-38.6592410845642
aF-39.6505477769196
aF-40.5838332163002
aF-42.01451404848112
aF-42.51274135236748
aF-43.923423378932256
aF-44.856592637655275
aF-46.22256637935627
aF-48.00966263482889
aF-49.37797231901231
aF-51.166731776708424
aF-52.516930409664226
aF-54.34011729603896
aF-55.27954660436631
aF-56.62999183334639
aF-57.563037963161705
aF-58.932703655648474
aF-60.76013193117214
aF-62.152763303260755
aF-65.43064827623822
aF-66.86157750054745
aF-68.29470540280468
aF-69.24795754640729
aF-71.13583059039271
aF-72.6033931047397
aF-74.06925458059787
aF-75.53546625278311
aF-76.4897962562812
aF-77.95819242650335
aF-79.44699051280026
aF-80.43587277115417
aF-81.42681280462051
aF-86.57971486013913
aF-87.92648847210337
aF-89.29718632865304
aF-91.1026188137245
aF-92.51162144104686
aF-93.8624774243316
aF-95.2522744150919
aF-98.37271364463255
aF-100.18141788970763
aF-101.4962091774952
aF-102.41196676678665
aF-103.7660854691576
aF-104.6801575958063
aF-106.03026526329262
aF-106.983811779602
aF-107.87946581775473
aF-108.37728826886568
aF-109.29270890095592
aF-110.22659615001807
aF-110.74316171122432
aF-111.2395729522377
aF-112.1896088314709
aF-112.68365184893435
aF-113.15803328921402
aF-114.10878883032457
aF-115.039764975201
aF-115.51477335495669
aF-117.36316687402208
aF-118.73435468690278
aF-119.66709165195519
aF-120.60173047749704
aF-121.99386318063816
aF-122.88772539246028
aF-123.42331397412212
aF-124.35761245727451
aF-125.27095614515952
aF-126.20613789338047
aF-126.70374333809458
aF-128.1134527225118
aF-129.02689557915951
aF-130.83951324467807
aF-131.7547427488628
aF-132.6704575376741
aF-134.46277443408655
aF-135.81521534461825
aF-137.64632600226085
aF-138.5626635833566
aF-141.78675006090364
aF-143.59700622221567
aF-145.0050559474133
aF-145.91608702683732
aF-147.28433774658626
aF-148.69002167479076
aF-150.53216349020448
aF-151.88209500931788
aF-153.2890830137243
aF-155.11451503665182
aF-156.48489184350748
aF-157.85599083861385
aF-159.2472199327984
aF-160.61816487757775
aF-162.027533978517
aF-163.45644987160776
aF-164.37041980366854
aF-165.32304300603937
aF-166.25387720678683
aF-167.7039342539619
aF-170.5815475359608
aF-171.9522480732624
aF-176.71226690901773
aF-177.64655885803708
aF-179.0565042981475
aF-180.0078059203584
aF-181.43598439026482
aF-182.86453188779265
aF-183.817907650164
aF-184.73220257408897
aF-185.66592746497412
aF-186.61865271567592
aF-188.00910950496126
aF-188.9432205334315
aF-193.6647326127339
aF-194.5975924662678
aF-195.53221771651806
aF-196.44443263431936
aF-200.67438591647328
aF-202.04980642882927
aF-204.36379146321588
aF-205.320306164519
aF-206.695421863566
aF-207.61262264098727
aF-208.11130981076903
aF-209.00823715821446
aF-209.9214793958926
aF-210.41770409292806
aF-211.33141475420874
aF-211.82574270551547
aF-212.71805159879887
aF-213.61151583973393
aF-214.08369595773434
aF-214.97667609325495
aF-215.9086105834979
aF-220.44855611080416
aF-221.36505864503522
aF-222.26007786522135
aF-223.1769041004573
aF-224.09283214451693
aF-225.92067225055104
aF-226.81453586331654
aF-227.70649837132433
aF-228.1804140478666
aF-228.65402031188466
aF-229.56480718023292
aF-232.7268033847028
aF-236.33714263583306
aF-237.23006677748387
aF-237.68663489479206
aF-238.58007760755723
aF-239.9131929775609
aF-241.2651434082368
aF-241.7224357499034
aF-242.6365867867914
aF-243.51007014317346
aF-244.8589432742344
aF-245.31553437738916
aF-246.1895923470967
aF-247.08384725375967
aF-249.30789713828608
aF-250.2015569623805
aF-250.6579995925367
aF-251.53162510365988
aF-252.42756550128897
aF-253.3000426551395
aF-254.6302439430458
aF-255.5036196191458
aF-256.37672773137894
aF-257.25155944384346
aF-258.1078704797784
aF-258.9841258443164
aF-259.8572227308524
aF-260.7317297829219
aF-261.58736541324157
aF-262.883292436426
aF-264.17537544616084
aF-265.9031337761747
aF-266.7579426309868
aF-268.052225251885
aF-271.514430179732
aF-273.24455261992375
aF-274.54033627399184
aF-275.3965643952648
aF-276.2525527195097
aa(lp4
F8.139377621410833e-05
aF6.857720906468527e-05
aF-3.674319443596394e-05
aF-8.47088175567094e-05
aF-0.0003266958758542613
aF-0.0002088126442522228
aF-0.00029079551044190396
aF-0.0005701948194638528
aF-0.0003099558421601397
aF-0.0004427582148121803
aF-0.0008708049446836697
aF-0.003319924202736504
aF-0.00969763778459412
aF-0.02609670670051156
aF-0.03713874655495332
aF-0.056952072829650646
aF-0.09433074147432563
aF-0.1371756806475657
aF-0.15722367813103882
aF-0.1571107651212189
aF-0.15924386596615447
aF-0.21477072602131705
aF-0.2177644277266359
aF-0.31972788416575376
aF-0.3651709446213209
aF-0.4745934055490276
aF-0.5596609497492007
aF-0.6300627166913906
aF-0.8522946922210677
aF-1.0556711061259787
aF-1.1488059671423225
aF-1.1995307768791257
aF-1.2791300683482063
aF-1.2197390458251423
aF-1.283509659532378
aF-1.1845880684998091
aF-1.2843051769820115
aF-1.2636340266809087
aF-1.3670755544265156
aF-1.5630336225246648
aF-1.877253075067599
aF-2.1110863530216517
aF-2.2678362157122716
aF-2.4591863541963512
aF-2.6411339746961424
aF-2.8581675793021963
aF-3.057841470504805
aF-3.189761457744361
aF-3.3492323325447537
aF-3.600717557320707
aF-3.8277191198650558
aF-4.022755272111522
aF-4.187409964586177
aF-4.328639678778474
aF-4.492928270495972
aF-4.699119080098135
aF-5.00371433297157
aF-5.2046181735175905
aF-5.44175233941199
aF-5.620022443103555
aF-6.154134417045728
aF-6.3874746511310505
aF-6.68343989502404
aF-6.912141350385219
aF-7.730264685547991
aF-7.992807352252619
aF-8.291009993749725
aF-8.5916173341394
aF-8.79481681718438
aF-9.066915555244172
aF-9.535838603201356
aF-9.970531893148303
aF-10.452962205444539
aF-10.923715857422724
aF-11.283178213867252
aF-11.764767596752998
aF-12.33782313665261
aF-12.608550133678035
aF-13.014485916076092
aF-13.472818068896538
aF-14.371506606978384
aF-14.888023863202905
aF-15.399255641242576
aF-15.810605229148317
aF-16.287635270635125
aF-16.697806499234915
aF-17.246365069039005
aF-17.688647735082238
aF-18.233783769050557
aF-18.804296782036122
aF-19.49778618474123
aF-20.23739104948159
aF-20.931012475445094
aF-21.58114262676328
aF-22.032761676250242
aF-22.505433673695432
aF-22.94201311541473
aF-23.383217997077626
aF-24.10208775598333
aF-24.73238682403681
aF-26.008348316304414
aF-26.6929889305131
aF-27.248841436583785
aF-27.679194531406868
aF-28.29035781897646
aF-28.865905639999383
aF-29.379576631298693
aF-29.908171253216135
aF-30.305545732138818
aF-30.8388250611272
aF-31.39315885349662
aF-31.852949705069175
aF-33.7418040401121
aF-34.2903279438106
aF-34.78127155840622
aF-35.39800204812182
aF-35.9951417073797
aF-36.685408828743306
aF-37.187913654884014
aF-37.76193285253836
aF-38.653035661967074
aF-39.164854952944076
aF-39.57033120435687
aF-39.90838332090007
aF-40.35315798531944
aF-40.64583280628525
aF-41.11313638766432
aF-41.54398871890045
aF-41.80186830758371
aF-42.08856322266229
aF-42.43869932770644
aF-42.8629934529678
aF-43.25443699206748
aF-43.50733544011001
aF-43.82680082983223
aF-44.05496112830639
aF-44.30916628563503
aF-44.63600844096797
aF-45.082828197855754
aF-45.34696595036547
aF-46.18001510995303
aF-46.68679205840488
aF-47.16722792342964
aF-47.73855689696788
aF-48.2176072792312
aF-48.57185533211401
aF-48.975924443816346
aF-49.349617308623756
aF-49.71773173503042
aF-50.02956361638117
aF-50.478020702304654
aF-51.00660773480464
aF-51.44571798185971
aF-51.950964053543096
aF-52.39552342037498
aF-52.8153213021113
aF-53.4221539283098
aF-53.858704035405324
aF-54.441008043540556
aF-54.8503093057693
aF-56.15799991200777
aF-56.80864701238563
aF-57.434373905641635
aF-57.84367396254156
aF-58.257159501261015
aF-58.8245615704586
aF-59.496106328538126
aF-59.923519774616295
aF-60.4980861569157
aF-61.189060432018785
aF-61.809425791825724
aF-62.30003688234519
aF-62.88090213740774
aF-63.30901895896993
aF-64.01959301622608
aF-64.60482752394583
aF-65.0206093676535
aF-65.43854893924346
aF-65.84179626359214
aF-66.47594361276428
aF-67.7498107584204
aF-69.82172685155358
aF-70.25798266059599
aF-70.65461584521726
aF-71.24453419316959
aF-71.69256460384406
aF-72.30472922268953
aF-72.86367577609352
aF-73.18545988205572
aF-73.57975012874617
aF-73.96676355291059
aF-74.43561509936272
aF-74.9347547417902
aF-76.77136823322061
aF-77.27690734181083
aF-77.58761478770903
aF-77.97837695907552
aF-79.75001638306037
aF-80.15223894427757
aF-80.60807088357767
aF-81.56235824223272
aF-82.00435327978252
aF-82.42284711468336
aF-82.78160868114507
aF-83.07842858134238
aF-83.34846152002812
aF-83.61222470777851
aF-83.96902829240624
aF-84.2405986241135
aF-84.47960670351402
aF-84.81278042028299
aF-85.0924696153934
aF-85.34717050869392
aF-85.69737690857563
aF-87.35881896596484
aF-87.75875848090662
aF-88.13543093773859
aF-88.45617895290586
aF-88.95761863486032
aF-89.20972092874531
aF-90.01833012983094
aF-90.26635940050758
aF-90.54837170868922
aF-90.88238388517912
aF-91.10516619786443
aF-92.48924437900588
aF-93.95751283890486
aF-94.37253982938685
aF-94.68892174083251
aF-95.01559576551587
aF-95.34361404559577
aF-95.85645307567387
aF-96.39924505049116
aF-96.74482458144941
aF-97.12248737941313
aF-97.49507326943794
aF-97.9424249894815
aF-98.26017469374162
aF-98.57110617732612
aF-98.88469280073474
aF-99.89484546670752
aF-100.23102282403485
aF-100.61166381450569
aF-100.91510783657304
aF-101.34220489337241
aF-101.63180445144793
aF-102.14809084480089
aF-102.57538403085842
aF-102.91550749520687
aF-103.31813086800362
aF-103.70234260199126
aF-104.10438264107876
aF-104.46233494284098
aF-104.93438328727804
aF-105.33908044325833
aF-105.7446745105583
aF-106.3600947949015
aF-107.08756322978773
aF-107.4955529209009
aF-107.94730988153164
aF-109.27631986479497
aF-109.90748496909954
aF-110.53913297051163
aF-110.9388038218887
aF-111.36202534379657
aa(lp5
F-3.8182287216186523
aF-3.8181910514831543
aF-3.818556547164917
aF-3.8182995319366455
aF-3.8187100887298584
aF-3.818497657775879
aF-3.8187763690948486
aF-3.818965196609497
aF-3.8187403678894043
aF-3.8188164234161377
aF-3.8195102214813232
aF-3.8247978687286377
aF-3.837641477584839
aF-3.868892192840576
aF-3.8808341026306152
aF-3.922238349914551
aF-3.9899048805236816
aF-4.085447788238525
aF-4.169896125793457
aF-4.268320083618164
aF-4.554958343505859
aF-4.674137592315674
aF-4.788028240203857
aF-4.891154766082764
aF-4.996720314025879
aF-5.093238353729248
aF-5.178221225738525
aF-5.244020938873291
aF-5.348641872406006
aF-5.438063621520996
aF-5.542353630065918
aF-5.684986591339111
aF-5.83970832824707
aF-6.11850643157959
aF-6.444731712341309
aF-6.784034729003906
aF-7.103797912597656
aF-7.599300861358643
aF-8.003191947937012
aF-8.476827621459961
aF-9.460988998413086
aF-10.00454330444336
aF-10.43780517578125
aF-11.039621353149414
aF-11.475394248962402
aF-11.982688903808594
aF-12.473782539367676
aF-12.773791313171387
aF-13.138554573059082
aF-13.738534927368164
aF-14.387075424194336
aF-14.86532211303711
aF-15.366393089294434
aF-15.973058700561523
aF-16.458078384399414
aF-16.94948387145996
aF-17.69219207763672
aF-18.43408966064453
aF-18.93512725830078
aF-19.360654830932617
aF-20.651819229125977
aF-21.24863052368164
aF-21.8975887298584
aF-22.49993896484375
aF-24.651609420776367
aF-25.362030029296875
aF-26.315601348876953
aF-26.985103607177734
aF-27.62465476989746
aF-28.344270706176758
aF-29.510719299316406
aF-30.61485481262207
aF-31.81498908996582
aF-32.9801025390625
aF-33.89336395263672
aF-35.003414154052734
aF-36.37938690185547
aF-37.124244689941406
aF-38.00629425048828
aF-39.26511001586914
aF-41.449684143066406
aF-42.78716278076172
aF-44.08298110961914
aF-45.277732849121094
aF-46.41671371459961
aF-47.436317443847656
aF-48.92615509033203
aF-50.13282775878906
aF-51.509368896484375
aF-53.14077377319336
aF-54.55989074707031
aF-56.2103157043457
aF-57.763641357421875
aF-59.2313232421875
aF-60.22659683227539
aF-61.29250717163086
aF-62.34587097167969
aF-63.322025299072266
aF-64.88331604003906
aF-66.35748291015625
aF-69.16081237792969
aF-70.92281341552734
aF-72.14434814453125
aF-73.04920959472656
aF-74.54261779785156
aF-75.7922134399414
aF-77.15379333496094
aF-78.28547668457031
aF-79.27684783935547
aF-80.51801300048828
aF-81.83687591552734
aF-82.90938568115234
aF-87.45879364013672
aF-88.66154479980469
aF-89.87621307373047
aF-91.26611328125
aF-92.76529693603516
aF-93.98528289794922
aF-95.21552276611328
aF-96.5346908569336
aF-98.38883972167969
aF-99.52159881591797
aF-100.2848129272461
aF-101.00187683105469
aF-101.95390319824219
aF-102.59979248046875
aF-103.53375244140625
aF-104.43609619140625
aF-104.96818542480469
aF-105.61609649658203
aF-106.36872863769531
aF-107.24305725097656
aF-108.08312225341797
aF-108.75707244873047
aF-109.43669891357422
aF-109.95146179199219
aF-110.71954345703125
aF-111.47071838378906
aF-112.45797729492188
aF-113.22431182861328
aF-115.009521484375
aF-116.20484161376953
aF-117.20565795898438
aF-118.57160186767578
aF-119.52951049804688
aF-120.41613006591797
aF-121.19208526611328
aF-122.02444458007812
aF-122.8702392578125
aF-123.59320068359375
aF-124.45394897460938
aF-125.70092010498047
aF-126.70954132080078
aF-127.7950210571289
aF-128.62173461914062
aF-129.50540161132812
aF-130.76797485351562
aF-131.6410675048828
aF-132.7581329345703
aF-133.7563934326172
aF-136.21681213378906
aF-137.4412841796875
aF-138.60740661621094
aF-139.4155731201172
aF-140.28794860839844
aF-141.42816162109375
aF-142.784423828125
aF-143.76687622070312
aF-144.96060180664062
aF-146.36769104003906
aF-147.65530395507812
aF-148.75009155273438
aF-149.9766387939453
aF-150.86289978027344
aF-152.42910766601562
aF-153.5240936279297
aF-154.47508239746094
aF-155.2954864501953
aF-156.38897705078125
aF-157.63400268554688
aF-160.33203125
aF-165.116943359375
aF-166.0988311767578
aF-166.99557495117188
aF-168.43734741210938
aF-169.45193481445312
aF-170.64576721191406
aF-171.75595092773438
aF-172.53848266601562
aF-173.4989471435547
aF-174.26193237304688
aF-175.32394409179688
aF-176.4281005859375
aF-180.45994567871094
aF-181.6214141845703
aF-182.19969177246094
aF-183.07061767578125
aF-186.98309326171875
aF-187.82717895507812
aF-188.80809020996094
aF-190.7720184326172
aF-191.54635620117188
aF-192.2945098876953
aF-193.05931091308594
aF-193.63186645507812
aF-194.14659118652344
aF-194.7405242919922
aF-195.38650512695312
aF-195.94155883789062
aF-196.4173583984375
aF-197.1579132080078
aF-197.72637939453125
aF-198.2122802734375
aF-199.03131103515625
aF-202.35728454589844
aF-203.1632843017578
aF-203.80726623535156
aF-204.52752685546875
aF-205.44764709472656
aF-205.93588256835938
aF-207.3927459716797
aF-207.8907012939453
aF-208.50904846191406
aF-209.11439514160156
aF-209.51931762695312
aF-212.437255859375
aF-215.8018341064453
aF-216.70826721191406
aF-217.360107421875
aF-218.08226013183594
aF-218.97714233398438
aF-220.00079345703125
aF-221.0283660888672
aF-221.92295837402344
aF-222.70455932617188
aF-223.46810913085938
aF-224.44290161132812
aF-225.19451904296875
aF-225.84095764160156
aF-226.64053344726562
aF-228.77418518066406
aF-229.44981384277344
aF-230.2977752685547
aF-231.0004425048828
aF-231.99951171875
aF-232.60516357421875
aF-233.82171630859375
aF-234.7002716064453
aF-235.46189880371094
aF-236.36929321289062
aF-237.3535919189453
aF-238.14669799804688
aF-238.9391326904297
aF-240.08590698242188
aF-240.97906494140625
aF-242.02059936523438
aF-243.28445434570312
aF-245.00970458984375
aF-246.02745056152344
aF-246.983154296875
aF-250.0047149658203
aF-251.6216278076172
aF-252.8585205078125
aF-253.79212951660156
aF-254.77479553222656
aaa(lp6
(lp7
F-0.2516966330194194
aF-0.5769559897928433
aF-0.7394702604701222
aF-0.8565314580113617
aF-0.9522959083593325
aF-1.0404855539884508
aF-1.1038139147655035
aF-1.1385523869107992
aF-1.1593335145798838
aF-1.1490098768243613
aF-1.1309089128697605
aF-1.0972552521150167
aF-1.0492411000964368
aF-0.9634860659656977
aF-0.8168416128660375
aF-0.7523220786945125
aF-0.4723667399803564
aF-0.1240895022374789
aF0.3186289688753056
aF0.7462726560392547
aF1.9391004585612939
aF2.428809577285142
aF2.974428491791798
aF3.5898602923354512
aF4.134913940030536
aF4.622012916230128
aF5.19921173882174
aF5.575393101190397
aF6.078438131017259
aF6.424963563285326
aF6.906055115816031
aF7.544905504353086
aF7.934757272975139
aF8.512379752831965
aF9.204822954168112
aF9.636387262651882
aF10.253817629573081
aF10.820742867705409
aF11.406083309070961
aF11.84459867978361
aF12.867635919505577
aF13.360195538198232
aF13.674488257609607
aF14.221427914945364
aF14.70918047661222
aF15.05028831177863
aF15.326128090978484
aF15.3910108526798
aF15.460803046490856
aF15.350075928724893
aF15.214551738671615
aF14.97863323651265
aF14.817934520376477
aF14.512689350326392
aF14.311175963801709
aF14.034139869640365
aF13.673673510058816
aF13.438454518342903
aF13.215313769112269
aF13.061230696104905
aF12.694943926420661
aF12.446728484642133
aF12.188888427873334
aF11.89675711238521
aF11.536150543134182
aF10.499567715444398
aF10.081984796866745
aF9.678149268517158
aF9.347129083463335
aF9.125448804537232
aF8.626658791548767
aF8.227681120452173
aF7.743282028493863
aF7.227270707682698
aF6.905729356495798
aF6.309962752456341
aF5.765880761331806
aF5.327090471735606
aF4.931496916363564
aF4.288114933008258
aF3.2252878419047253
aF2.5520001907030596
aF1.8668833507226408
aF1.3848343935293428
aF0.6642485375954865
aF0.18757271272134565
aF-0.5542018866189721
aF-1.002977893339505
aF-1.6857280885980124
aF-2.348404173164622
aF-2.831788785990395
aF-3.242008127029191
aF-3.5967877104482446
aF-3.963089887882624
aF-4.26276180056426
aF-4.584473766839927
aF-4.877832124455385
aF-5.20946495927944
aF-5.715764995938698
aF-6.247440721399727
aF-7.358977611836675
aF-8.055365890974267
aF-8.680251410881388
aF-9.132269229482471
aF-9.768966402984962
aF-10.528826197046676
aF-11.337464030599962
aF-12.205759569409977
aF-12.768438249334977
aF-13.601435067355304
aF-14.452649878353801
aF-15.355661205215952
aF-15.866611534673057
aF-18.723056455907834
aF-19.197140603276516
aF-19.83534424265424
aF-20.442222686835677
aF-21.0449900040415
aF-21.42328285125737
aF-21.976713893487936
aF-22.663186455198574
aF-22.992619842372157
aF-23.28819709941931
aF-23.4359264669217
aF-23.75337483692035
aF-23.92941349529321
aF-24.247479458429446
aF-24.582104468261207
aF-24.79067037488685
aF-25.0246437552556
aF-25.37588392887431
aF-25.719672405714608
aF-26.055909586816277
aF-26.287127639206762
aF-26.69060546428439
aF-26.95829457989851
aF-27.28927873847036
aF-27.73230378344917
aF-28.195101533955086
aF-28.491546796506068
aF-29.224324089246117
aF-29.664154743799436
aF-30.115486848098527
aF-30.526021647651394
aF-30.96922144776877
aF-31.27183052901521
aF-31.578303518618437
aF-31.920735378233324
aF-32.227632441662294
aF-32.565356844662105
aF-32.916335547940164
aF-33.47037170879112
aF-33.821818345272966
aF-34.37835244416099
aF-34.70493126314239
aF-35.041259183503556
aF-35.48230354653456
aF-35.79233586027402
aF-36.24944369895515
aF-36.55733314102457
aF-37.46741458068217
aF-37.95961303694918
aF-38.42143163603193
aF-38.798368323774774
aF-39.112933456312625
aF-39.6679245374137
aF-40.24283850243428
aF-40.645896850117616
aF-41.248888695149375
aF-41.83644631771644
aF-42.4235059817971
aF-42.77848104619145
aF-43.34001251601685
aF-43.69698677646672
aF-44.26841809555156
aF-44.858611646869804
aF-45.2690232035829
aF-45.63364576506984
aF-46.040350669981756
aF-46.666894848841025
aF-48.03490907010594
aF-48.56522973266983
aF-51.07753890570509
aF-51.562993712440274
aF-52.238048913161236
aF-52.70007734294086
aF-53.339418753636366
aF-54.027642331074695
aF-54.48480526311413
aF-54.93719263653012
aF-55.350077873428496
aF-55.75929856604194
aF-56.37017321243472
aF-56.7761440871555
aF-58.98150961338932
aF-59.35985924514756
aF-59.73172199640093
aF-60.12594690130516
aF-61.94358546996791
aF-62.48713096226859
aF-63.280286701126656
aF-63.71250781366861
aF-64.15587623559257
aF-64.43194394336582
aF-64.7214017765704
aF-64.98976532693055
aF-65.23682963429104
aF-65.52069955687666
aF-65.7896051582278
aF-66.04872879275308
aF-66.35451196525767
aF-66.6028172492902
aF-66.86650202675378
aF-67.12851575366257
aF-67.47222057492785
aF-68.65824566990227
aF-68.9137948437609
aF-69.17146572190711
aF-69.49775461611979
aF-69.72003568178108
aF-70.23191760074756
aF-70.44585837513729
aF-70.62978913750338
aF-70.84407267319808
aF-71.05526718739682
aF-71.26113461697864
aF-72.3123725672805
aF-73.44222933654451
aF-73.6025360803911
aF-73.79268713469934
aF-73.98987463671581
aF-74.24087820289446
aF-74.40519252811984
aF-74.69681738259726
aF-74.8573055086425
aF-75.04045230404527
aF-75.2905468704961
aF-75.49601914243856
aF-75.6374532617161
aF-75.7828387027764
aF-76.21276398911404
aF-76.35446320418492
aF-76.51544613777332
aF-76.63822351158267
aF-76.78864550828088
aF-76.91871342182922
aF-77.05602253073533
aF-77.26592099945873
aF-77.3993559077122
aF-77.5079943750197
aF-77.59549127124568
aF-77.67531026145605
aF-77.73780970020243
aF-77.82482070132819
aF-77.89551400718311
aF-77.94452838970089
aF-78.00614055726288
aF-78.06325214748684
aF-78.06677714617233
aF-78.0794894825347
aF-78.08767841166312
aF-78.08686161576065
aF-78.10530288321412
aF-78.1327547003638
aF-78.07130788641742
aF-78.08640535080471
aa(lp8
F-1.0808410270697175
aF-1.0809545357313595
aF-1.1877060176441656
aF-1.0809132071773928
aF-1.1874968719725387
aF-1.1872953201353325
aF-1.187272975861311
aF-1.1874274358012071
aF-1.1114105930200608
aF-1.111430887946971
aF-1.1112593606809833
aF-1.0042449205789832
aF-1.0034777259121652
aF-0.8956984746086432
aF-0.7889285821460938
aF-0.5752817717070473
aF-0.17853165353514122
aF0.3552184462952054
aF0.7530349368269276
aF1.1813476242844578
aF2.5020881072388486
aF3.007988351682312
aF3.732489688540816
aF4.2758532213033025
aF4.8900146731684755
aF5.4616569042987395
aF5.957289157766884
aF6.270556571960247
aF6.842646890355942
aF7.342093107689259
aF7.842231940256042
aF8.34460504393439
aF8.767633940179065
aF9.377333697887657
aF10.193941941553382
aF10.433420376219017
aF11.051171191076074
aF11.616236146922358
aF12.259369001026283
aF12.99928009870652
aF14.192740910022383
aF14.851260449623329
aF15.089546595802135
aF15.692652710722607
aF15.769783076615788
aF15.991159007235211
aF15.846157693367102
aF15.916683283311206
aF15.666138649186527
aF15.417041121698126
aF14.988259387763534
aF14.742307333387952
aF14.314137370055262
aF14.072993757131826
aF13.834185355499894
aF13.712571956501572
aF13.500519531267178
aF13.279109373720567
aF13.068423450031501
aF12.954807967893396
aF12.520203060256463
aF12.281506493018604
aF11.858916403173923
aF11.53099271384733
aF11.178978867264245
aF9.904387893878962
aF9.518828423041532
aF9.06070671946537
aF8.810890807194435
aF8.568752373506767
aF8.187472630320258
aF7.703202010030158
aF7.217020208054198
aF6.701063161468657
aF6.247096674815426
aF5.728960026444771
aF5.027970599564946
aF4.537168588585231
aF4.0752776545906295
aF3.474518830408165
aF2.38411384130419
aF1.6477973895669809
aF0.929135934848511
aF0.531375375105281
aF-0.22959247443427933
aF-0.5949545936263531
aF-1.2333156017181
aF-1.6208089029987793
aF-2.0271756074427243
aF-2.353585399965031
aF-2.7461525980367254
aF-3.0615003917414096
aF-3.3500897536349177
aF-3.8867682329153928
aF-4.254576691520585
aF-4.556582670074593
aF-4.926424362999417
aF-5.328720542036209
aF-5.863300500443819
aF-6.369638576026953
aF-7.767173897493008
aF-8.491292643891217
aF-9.189945405854695
aF-9.652674487456837
aF-10.499129376308764
aF-11.45806908994951
aF-12.40887459891955
aF-13.343482017057307
aF-13.819344671690581
aF-14.754832957610148
aF-15.80046349896299
aF-16.503946324144092
aF-17.212093337027774
aF-19.500133313249574
aF-19.811420374228955
aF-20.232379474601927
aF-20.683386082667724
aF-21.316388785653512
aF-21.62159782473007
aF-22.13469931005759
aF-22.65362445411099
aF-23.08636097062441
aF-23.167451446372606
aF-23.434523764131022
aF-23.730118961220274
aF-23.998990095134328
aF-24.297153422288787
aF-24.7778783109333
aF-24.942594760351938
aF-25.289816495659753
aF-25.55592303525128
aF-25.930866005050365
aF-26.382425420869374
aF-26.730991143579633
aF-27.22418114135982
aF-27.579261470230982
aF-27.828927790457428
aF-28.324276717837662
aF-28.7096560262109
aF-28.954325837736537
aF-29.609582511230176
aF-30.01609713575095
aF-30.392602817466457
aF-30.76970959920496
aF-31.282745054864318
aF-31.446325850921994
aF-32.005948978369105
aF-32.38254156896404
aF-32.65296402629573
aF-33.03068277757722
aF-33.382500930775976
aF-34.00572732128222
aF-34.27960092453712
aF-34.717590028623114
aF-34.988654584329865
aF-35.25535187984057
aF-35.58128179152952
aF-35.878083598833726
aF-36.417313021064246
aF-36.68628798046987
aF-37.73596574327961
aF-38.173812662655116
aF-38.80001520330129
aF-39.079175137885315
aF-39.497513653037686
aF-40.13439164078452
aF-40.803334913402914
aF-41.11494873449484
aF-41.74808381018831
aF-42.30245533736485
aF-42.71718819747932
aF-43.130040143836794
aF-43.64794744247738
aF-44.05888303328749
aF-44.68415683936907
aF-45.41754001783429
aF-45.6916672421809
aF-46.177856000418544
aF-46.55702729750058
aF-47.398040751717765
aF-48.97414370608375
aF-49.387077086378845
aF-51.839724823639266
aF-52.22319175767215
aF-52.85100534401027
aF-53.33730497528679
aF-54.067832361320754
aF-54.79806986247517
aF-55.28494165232531
aF-55.55829799490461
aF-55.93802592387543
aF-56.423809345718844
aF-56.93953452405631
aF-57.31832386145925
aF-59.54839669491273
aF-59.93306861818632
aF-60.31700682741124
aF-60.59484071020389
aF-62.469080563171616
aF-62.87065051341948
aF-63.63798861042943
aF-64.11427000509755
aF-64.51234109633434
aF-64.78143597311261
aF-65.12339165767793
aF-65.28665220447321
aF-65.56148828317153
aF-65.91426922120833
aF-66.19411880000884
aF-66.55157986718298
aF-66.7265338096801
aF-66.89767966807536
aF-67.14732583814906
aF-67.31801180203337
aF-67.70159599228471
aF-68.85743010525331
aF-69.12922873884847
aF-69.29368977836451
aF-69.56305982594822
aF-69.83465231978742
aF-70.38816905576262
aF-70.56052655489594
aF-70.73376840222369
aF-70.98423842423551
aF-71.23325924506639
aF-71.51536279652645
aF-72.43075638545308
aF-73.34941004140057
aF-73.52058039215882
aF-73.65999375643369
aF-73.83045422587001
aF-74.03521114792316
aF-74.34644325374224
aF-74.48835402470836
aF-74.76578072570706
aF-74.83071976805826
aF-75.13987871185303
aF-75.28037257919337
aF-75.34457594327552
aF-75.51519694013236
aF-75.89211581123
aF-76.06275848641054
aF-76.20327334423187
aF-76.26909617210376
aF-76.44094870592784
aF-76.50871308872782
aF-76.71425312704874
aF-76.78585676860205
aF-76.85524976279821
aF-76.9259238204961
aF-76.89117819267035
aF-76.96105095261859
aF-77.03253426926834
aF-77.10517917127349
aF-77.07328221722588
aF-77.07082440519254
aF-77.07224050120156
aF-77.08412154918773
aF-77.03186330797398
aF-77.00989988849815
aF-77.0202892116048
aF-77.06251967882811
aF-77.08586931759609
aF-77.05644793588172
aF-77.01902551768698
aa(lp9
F-0.0005922736877299461
aF-0.0004986284995906688
aF0.00026213484516232177
aF0.0006087022335682596
aF0.0023462707975167377
aF0.0014998824020504003
aF0.0020878050368216797
aF0.004086318976953653
aF0.002228791718513458
aF0.0031750971563946915
aF0.006205949902228417
aF0.0234975474465455
aF0.06833487215525758
aF0.18157793410224368
aF0.2553095893850193
aF0.383242320653915
aF0.6115963247433758
aF0.8526849266771157
aF1.0921953303089218
aF1.3355902115962175
aF2.051855864941336
aF2.310007758087967
aF2.6109955920570695
aF2.825517067583461
aF2.9758062368161173
aF3.1919172964280635
aF3.408511384576222
aF3.549013831621849
aF3.6556480230519965
aF3.658396334058499
aF3.8549866600936675
aF4.077744047951713
aF4.233684744137704
aF4.469490122310436
aF4.723858959423435
aF4.874365319829095
aF5.070507565083271
aF5.247516760923489
aF5.452519294305319
aF5.514836543787727
aF5.879835096474673
aF5.981066111881407
aF6.089404775539675
aF6.240556334715582
aF6.335158424834973
aF6.42663571785315
aF6.4760065582429585
aF6.4864229529718
aF6.4962928583072665
aF6.428856402818357
aF6.317612615845169
aF6.161298088834959
aF6.037333796586743
aF5.816919585422458
aF5.693709290097996
aF5.685231420958284
aF5.610009950465694
aF5.396867366812211
aF5.278494488946418
aF5.2085082285908415
aF5.031273014813314
aF4.89714672309567
aF4.759599616759199
aF4.636313075865563
aF4.115097641120744
aF3.959580087140974
aF3.7047470269154106
aF3.5005359749229026
aF3.2952527839392536
aF3.176244859275922
aF2.897947086284021
aF2.639972821328998
aF2.381116819402445
aF2.1072830162770644
aF1.9386682313024726
aF1.6700858266411576
aF1.3928831204964336
aF1.2410402504513782
aF0.997081989311383
aF0.7331107468834543
aF0.17946823719308963
aF-0.15175665485669357
aF-0.4382911479143941
aF-0.6731792912264992
aF-0.9984270895129002
aF-1.216116554748237
aF-1.5556099663232423
aF-1.787662878241365
aF-2.044798652480446
aF-2.349934821264084
aF-2.4044204915858582
aF-2.608476838507293
aF-2.754171480250839
aF-2.9263841508182495
aF-3.054888393491245
aF-3.201223382304356
aF-3.322266911170781
aF-3.458470614565595
aF-3.6827801855946625
aF-3.872058294630316
aF-4.341334355935158
aF-4.6620697477922715
aF-4.873870594785772
aF-5.065186571846597
aF-5.316677848757638
aF-5.601095571022735
aF-5.9008768758236805
aF-6.211706489116857
aF-6.434730021493646
aF-6.739439536907259
aF-7.080845108682688
aF-7.412291138726858
aF-8.477534525752583
aF-8.732260876507981
aF-8.95950097293086
aF-9.198851999481684
aF-9.424494287984762
aF-9.669330386149754
aF-9.852368652142292
aF-10.026892056668204
aF-10.212816388577842
aF-10.31485812162947
aF-10.377904065346648
aF-10.42686196320472
aF-10.526120288621149
aF-10.588920507642978
aF-10.689194840647918
aF-10.81301745930864
aF-10.88827849861378
aF-10.96180037668408
aF-11.07816214826267
aF-11.213771035488776
aF-11.372828739409929
aF-11.504981152225785
aF-11.705459426301157
aF-11.83197838195683
aF-11.994370263080667
aF-12.194897312091793
aF-12.407954617718996
aF-12.538463401267656
aF-12.935456939285089
aF-13.152403196438655
aF-13.328105557772409
aF-13.57046426552746
aF-13.765003966011808
aF-13.896972837724796
aF-14.045403738159774
aF-14.226775927510042
aF-14.365895589076459
aF-14.473453728307058
aF-14.67151357332802
aF-14.927635394832484
aF-15.102039590200198
aF-15.282341883798393
aF-15.440405388440277
aF-15.573436889125604
aF-15.741006189701157
aF-15.861851255863986
aF-16.02810996735873
aF-16.148968944687148
aF-16.51250305429537
aF-16.717580098492057
aF-16.877229596868013
aF-17.015913237383003
aF-17.154928684075376
aF-17.344981652095168
aF-17.594069419341317
aF-17.744951163273726
aF-17.95135785812262
aF-18.187154369867716
aF-18.4007009181671
aF-18.56450462450661
aF-18.752364538555252
aF-18.912758030089822
aF-19.164537687358823
aF-19.391788071574975
aF-19.563382599402036
aF-19.72315279780449
aF-19.882749424120757
aF-20.189542200383098
aF-20.790500687681767
aF-21.837221897077825
aF-22.058755097965953
aF-22.254658706746923
aF-22.512001569242216
aF-22.726840204974007
aF-23.00282677467509
aF-23.270558313318706
aF-23.42706615489713
aF-23.61534749087404
aF-23.77566583556555
aF-23.970996656736258
aF-24.192643997463023
aF-25.035403594930575
aF-25.248619677682534
aF-25.371545623069693
aF-25.519354861531724
aF-26.296603077027655
aF-26.446480159837478
aF-26.619729353033286
aF-26.938401616332666
aF-27.07489240448132
aF-27.236978791599824
aF-27.34581158520184
aF-27.441164177426778
aF-27.55243481371591
aF-27.626549787114016
aF-27.743310070808935
aF-27.8574080030969
aF-27.934561643472296
aF-28.064806600312515
aF-28.167888451394106
aF-28.236630032881607
aF-28.35943034662763
aF-28.863647643691007
aF-28.974424361877357
aF-29.07997925332711
aF-29.17846353587619
aF-29.302241728252195
aF-29.376911373719146
aF-29.563697054129346
aF-29.64433628977521
aF-29.710824787289365
aF-29.791225305052286
aF-29.863446111126578
aF-30.27430457400331
aF-30.75951422787357
aF-30.891356048156556
aF-30.985181163217092
aF-31.039633923687443
aF-31.12519525013208
aF-31.280903295087565
aF-31.363980942413885
aF-31.456077365113963
aF-31.546787915698445
aF-31.63592366096168
aF-31.719395609164472
aF-31.784204305228048
aF-31.863749035226924
aF-31.916729662072502
aF-32.11489446526831
aF-32.166263583529215
aF-32.22691422104471
aF-32.292045573558006
aF-32.36295304628512
aF-32.413662319278316
aF-32.49891811087304
aF-32.571530643809986
aF-32.61679067191643
aF-32.65987496307761
aF-32.701716068734285
aF-32.72745713535497
aF-32.75021200033964
aF-32.805632575668405
aF-32.835276203606576
aF-32.84751879591707
aF-32.874877306319426
aF-32.90093173167612
aF-32.90416943984121
aF-32.90147655992672
aF-32.90106179935505
aF-32.91065687686121
aF-32.913351423156016
aF-32.91312905177121
aF-32.903970857382475
aa(lp10
F10.65955924987793
aF10.659578323364258
aF10.662755012512207
aF10.660994529724121
aF10.66473388671875
aF10.663349151611328
aF10.6660795211792
aF10.668014526367188
aF10.666594505310059
aF10.667533874511719
aF10.673605918884277
aF10.717498779296875
aF10.82377815246582
aF11.083697319030762
aF11.176663398742676
aF11.474413871765137
aF11.91591739654541
aF12.47360610961914
aF12.928427696228027
aF13.441544532775879
aF14.973942756652832
aF15.634328842163086
aF16.273723602294922
aF16.860183715820312
aF17.466596603393555
aF18.024450302124023
aF18.513608932495117
aF18.888608932495117
aF19.468889236450195
aF19.93636131286621
aF20.416120529174805
aF20.9172306060791
aF21.320545196533203
aF21.87519645690918
aF22.37056541442871
aF22.783132553100586
aF23.106143951416016
aF23.506742477416992
aF23.7613468170166
aF23.995357513427734
aF24.300928115844727
aF24.379270553588867
aF24.40057945251465
aF24.38770866394043
aF24.37129783630371
aF24.355417251586914
aF24.344406127929688
aF24.339420318603516
aF24.334951400756836
aF24.328866958618164
aF24.322895050048828
aF24.31848907470703
aF24.31358528137207
aF24.30600929260254
aF24.29527473449707
aF24.27572250366211
aF24.223735809326172
aF24.146812438964844
aF24.075773239135742
aF24.001449584960938
aF23.706098556518555
aF23.531085968017578
aF23.31094741821289
aF23.083316802978516
aF22.26481819152832
aF22.000629425048828
aF21.653488159179688
aF21.41530990600586
aF21.189929962158203
aF20.93698501586914
aF20.5244197845459
aF20.12742042541504
aF19.690412521362305
aF19.26001739501953
aF18.918886184692383
aF18.502944946289062
aF17.98884391784668
aF17.713865280151367
aF17.394166946411133
aF16.9477596282959
aF16.19489860534668
aF15.744044303894043
aF15.32979965209961
aF14.982335090637207
aF14.68493366241455
aF14.442008018493652
aF14.114036560058594
aF13.859086990356445
aF13.55836296081543
aF13.179880142211914
aF12.819262504577637
aF12.357123374938965
aF11.890633583068848
aF11.424327850341797
aF11.093307495117188
aF10.730701446533203
aF10.361231803894043
aF10.006169319152832
aF9.414101600646973
aF8.83066463470459
aF7.728376865386963
aF7.024536609649658
aF6.4843645095825195
aF6.04271936416626
aF5.265347957611084
aF4.62288236618042
aF3.9395177364349365
aF3.3580687046051025
aF2.8268885612487793
aF2.141791343688965
aF1.4053916931152344
aF0.8087135553359985
aF-1.5887415409088135
aF-2.1853413581848145
aF-2.774040460586548
aF-3.4323678016662598
aF-4.125721454620361
aF-4.678934097290039
aF-5.233992099761963
aF-5.8406453132629395
aF-6.722502708435059
aF-7.288625717163086
aF-7.686586856842041
aF-8.07015609741211
aF-8.591104507446289
aF-8.952751159667969
aF-9.482702255249023
aF-10.004884719848633
aF-10.316442489624023
aF-10.700017929077148
aF-11.15366268157959
aF-11.690027236938477
aF-12.212138175964355
aF-12.632004737854004
aF-13.050108909606934
aF-13.362079620361328
aF-13.81893539428711
aF-14.256377220153809
aF-14.822332382202148
aF-15.25915241241455
aF-16.283523559570312
aF-16.981996536254883
aF-17.574247360229492
aF-18.395524978637695
aF-18.9827880859375
aF-19.532794952392578
aF-20.020734786987305
aF-20.552501678466797
aF-21.09723663330078
aF-21.56446647644043
aF-22.119443893432617
aF-22.91872787475586
aF-23.568992614746094
aF-24.2789306640625
aF-24.82965087890625
aF-25.428682327270508
aF-26.303943634033203
aF-26.92319679260254
aF-27.73299217224121
aF-28.46928596496582
aF-30.325572967529297
aF-31.25808334350586
aF-32.138572692871094
aF-32.73787307739258
aF-33.37223434448242
aF-34.18181610107422
aF-35.115535736083984
aF-35.77499771118164
aF-36.56293869018555
aF-37.478721618652344
aF-38.31129837036133
aF-39.01934051513672
aF-39.81589889526367
aF-40.39408874511719
aF-41.419273376464844
aF-42.13663864135742
aF-42.75895690917969
aF-43.29574966430664
aF-44.01029968261719
aF-44.823246002197266
aF-46.585350036621094
aF-49.675506591796875
aF-50.30004119873047
aF-50.869110107421875
aF-51.7855224609375
aF-52.434452056884766
aF-53.20322036743164
aF-53.923519134521484
aF-54.43424987792969
aF-55.06513977050781
aF-55.56916046142578
aF-56.27589797973633
aF-57.017669677734375
aF-59.7569580078125
aF-60.53592300415039
aF-60.91995620727539
aF-61.493507385253906
aF-64.03241729736328
aF-64.59000396728516
aF-65.25222778320312
aF-66.6661605834961
aF-67.25533294677734
aF-67.839599609375
aF-68.45087432861328
aF-68.91826629638672
aF-69.34445190429688
aF-69.83955383300781
aF-70.37709045410156
aF-70.83392333984375
aF-71.2200698852539
aF-71.81119537353516
aF-72.25727844238281
aF-72.63465881347656
aF-73.2641830444336
aF-75.8100357055664
aF-76.44200134277344
aF-76.95280456542969
aF-77.52984619140625
aF-78.27580261230469
aF-78.67516326904297
aF-79.86844635009766
aF-80.26923370361328
aF-80.76084899902344
aF-81.23526763916016
aF-81.54805755615234
aF-83.63270568847656
aF-85.69013214111328
aF-86.22805786132812
aF-86.6135482788086
aF-87.04035186767578
aF-87.56597900390625
aF-88.16126251220703
aF-88.7509536743164
aF-89.25690460205078
aF-89.69286346435547
aF-90.11353302001953
aF-90.64186096191406
aF-91.0435791015625
aF-91.38514709472656
aF-91.80276489257812
aF-92.8948745727539
aF-93.23418426513672
aF-93.65581512451172
aF-94.00145721435547
aF-94.48680877685547
aF-94.7768325805664
aF-95.34769439697266
aF-95.74986267089844
aF-96.09053039550781
aF-96.48574829101562
aF-96.90048217773438
aF-97.22267150878906
aF-97.53343200683594
aF-97.9615707397461
aF-98.27668762207031
aF-98.62493133544922
aF-99.02278900146484
aF-99.55831909179688
aF-99.88491821289062
aF-100.19953918457031
aF-101.24881744384766
aF-101.77833557128906
aF-102.12076568603516
aF-102.35386657714844
aF-102.58611297607422
aaa(lp11
(lp12
F0.03378163520675845
aF0.0001434860386174994
aF0.0013368403517774548
aF-0.0012920669517190585
aF0.0019115598317361452
aF8.62151060971846e-06
aF-0.0009592398435537924
aF0.0031693069522670627
aF-0.002957369828207636
aF0.0047113032102610785
aF0.0010996614643938474
aF0.003179915534723131
aF0.018503690083324628
aF0.048397911948430274
aF0.08456298198330639
aF0.08832197747497104
aF0.11381783033807101
aF0.12208045084530221
aF0.10454218179443821
aF0.19796940294141238
aF0.17872442074381487
aF0.011741877844886443
aF0.19893693381428756
aF0.13597587857803198
aF0.2753520302370189
aF-0.06818959220364286
aF0.03150193859349091
aF0.026094547951268737
aF-0.1537468465516334
aF-0.2921660680841753
aF-0.06307680697349023
aF0.08155956814493175
aF0.0725282579890792
aF0.40075339252819214
aF0.13172175638675784
aF0.2529323675719189
aF-0.0533176764353604
aF0.4118440970658561
aF0.07497126613551726
aF-0.20843283252536257
aF-0.11884086243859225
aF-0.2736314159242291
aF-0.2545629671261282
aF-0.16960117694024737
aF-0.2353616675428819
aF-0.21049013994139887
aF-0.26033485002240175
aF-0.2740180229606479
aF-0.25636971342770276
aF-0.2869311242053704
aF-0.2527210397197685
aF-0.18527557253194363
aF-0.25938736567326653
aF-0.058943309405935014
aF-0.13639029675762232
aF-0.34285838107994465
aF-0.3824380821354102
aF-0.14408834371603602
aF-0.29637540495157766
aF-0.2919917292221611
aF-0.3160534162412978
aF-0.28656675538202336
aF-0.29522885335205784
aF-0.32301156564686595
aF-0.7685506442495927
aF-0.30464566111845837
aF-0.24998029830756188
aF-0.42717613740898086
aF-0.354468587361326
aF-0.3292946781805296
aF-0.44830771536720165
aF-0.3903389774375087
aF-0.5121398051093929
aF-0.5578671588270799
aF-0.5366107066401656
aF-0.5259918952802579
aF-0.5500760778506394
aF-0.6154688529004686
aF-0.492705714556672
aF-0.5640386498571014
aF-0.4948515862227294
aF-0.5425257033444257
aF-0.6296776454873386
aF-0.6298823821075415
aF-0.54796825235512
aF-0.552073795958318
aF-0.699028139987481
aF-0.5903396389775342
aF-0.73434696409946
aF-0.5740431094083621
aF-0.8684470859077346
aF-0.8010528928998473
aF-0.8701862766241892
aF-0.7815248848268975
aF-0.7712517511167059
aF-0.8751583977895091
aF-0.7313534321634084
aF-0.7905456877096574
aF-0.7643868073671687
aF-0.8117661059575155
aF-0.7957055444496297
aF-0.7360042459979664
aF-0.7722791049022417
aF-0.7594238343813831
aF-0.702991288636918
aF-0.6265903465019059
aF-0.5816184190277659
aF-0.5705867531705905
aF-0.5846170640120193
aF-0.596451424944145
aF-0.5367271899929119
aF-0.5319961629073197
aF-0.5507592132860303
aF-0.7587010233626633
aF-0.6536699858886534
aF-0.7010861971305954
aF-0.8096763480115423
aF-0.8249095124008705
aF-0.7526098622751197
aF-0.7721845914970917
aF-0.6923397502621258
aF-0.6004972212641505
aF-0.5547786875832577
aF-0.5568716057425988
aF-0.5744055651162497
aF-0.5864453699405052
aF-0.5391507490139413
aF-0.5195831848175791
aF-0.5374311786726697
aF-0.5500180551222507
aF-0.4858677131323126
aF-0.5059085013466562
aF-0.5006663488052033
aF-0.4420791290743354
aF-0.4188474285172037
aF-0.3490429217198327
aF-0.4217325059998241
aF-0.40928371108720807
aF-0.44032476650503816
aF-0.5302614989821782
aF-0.6353208964742004
aF-0.5378947696645768
aF-0.6565295080302068
aF-0.6849702678863338
aF-0.6580557741572737
aF-0.6862447033473739
aF-0.7934846434847413
aF-0.6866437987448336
aF-0.5194195876598812
aF-0.6947177684742012
aF-0.6621052196484288
aF-0.7078633459252061
aF-0.6450303726863907
aF-0.7959369518950603
aF-0.756661555942123
aF-0.7604796496306941
aF-0.7060943258443603
aF-0.7602746590965203
aF-0.841856682205441
aF-0.8209658445586097
aF-0.8083808377954502
aF-0.7447285303691329
aF-0.7764976379035685
aF-0.8679923231825073
aF-0.8008075135698016
aF-0.8318962938655392
aF-0.854688873758545
aF-0.802352622943926
aF-0.7517828394315967
aF-0.7946794504403892
aF-0.8376377994780098
aF-0.8220071012985339
aF-0.8548408801421776
aF-0.769383528582056
aF-0.8896678332389235
aF-0.8264930154323542
aF-0.7662146037738412
aF-0.753564242802821
aF-0.7331897650235631
aF-0.702552000101683
aF-0.7509738104472695
aF-0.700431607353772
aF-0.8243494472634315
aF-0.8798435067057953
aF-0.7550043874364498
aF-0.8053841438202087
aF-0.6909704653880638
aF-0.6477365672324861
aF-0.7008420804105834
aF-0.6416012753373895
aF-0.743296730512614
aF-0.6994688192118534
aF-0.7580988674344993
aF-0.6828385262643314
aF-0.6879279894442675
aF-0.655188961940896
aF-0.6534335024037491
aF-0.6546934141106405
aF-0.6283705062171959
aF-0.6666173305931882
aF-0.566888768333827
aF-0.6117784565929346
aF-0.5074056069483684
aF-0.6213201054193411
aF-0.6092803053490378
aF-0.5235422591484818
aF-0.6047511915942287
aF-0.6013541587290553
aF-0.5251476080858463
aF-0.5144096367544159
aF-0.6211885034116046
aF-0.5173765344909266
aF-0.5292758798050535
aF-0.5401922830596065
aF-0.5638103330444818
aF-0.7254322411141342
aF-0.6632327454412904
aF-0.6596391792366997
aF-0.6230507183915439
aF-0.5764562569142058
aF-0.550314005326683
aF-0.5489578674180801
aF-0.5558722014037214
aF-0.5406683181692488
aF-0.5047611564616492
aF-0.5065191909142231
aF-0.5498029045639187
aF-0.7788229005756659
aF-0.6363194942669725
aF-0.6981628304748726
aF-0.7074434962738306
aF-0.6525003879957606
aF-0.6708643322862463
aF-0.6523082368969888
aF-0.6908076290415291
aF-0.6692644264101208
aF-0.6661476073807729
aF-0.649071019838309
aF-0.6760368382498215
aF-0.6383889903237365
aF-0.5953861015874099
aF-0.7052976360999829
aF-0.7300351412757204
aF-0.6774438784816034
aF-0.7506880645990585
aF-0.6641620147770008
aF-0.7498098017337429
aF-0.7203725544261768
aF-0.7091244497431165
aF-0.7620192261227432
aF-0.7884524247067412
aF-0.795879476536376
aF-0.7929352029833839
aF-0.8079671209123753
aF-0.7383476121174468
aF-0.8006217007349308
aF-0.7596406040131053
aF-0.812217744215873
aF-0.7775629327903509
aF-0.8475239465719361
aF-0.8214466903625345
aF-0.8810459323298411
aF-0.7858270549537444
aF-0.8203379021591924
aF-0.754097021137672
aF-0.8033453516230546
aa(lp13
F0.0
aF0.0
aF0.0
aF0.0
aF0.0
aF0.0
aF0.0
aF0.0
aF0.0
aF0.0
aF0.0
aF0.0
aF0.0
aF0.0
aF0.0
aF0.0
aF0.0
aF0.0
aF0.0
aF0.0
aF0.0
aF0.0
aF0.0
aF0.0
aF0.0
aF0.0
aF0.0
aF0.0
aF0.0
aF0.0
aF0.0
aF0.0
aF0.0
aF0.0
aF0.0
aF0.0
aF0.0
aF0.0
aF0.0
aF0.0
aF0.0
aF0.0
aF0.0
aF0.0
aF0.0
aF0.0
aF0.0
aF0.0
aF0.0
aF0.0
aF0.0
aF0.0
aF0.0
aF0.0
aF0.0
aF0.0
aF0.0
aF0.0
aF0.0
aF0.0
aF0.0
aF0.0
aF0.0
aF0.0
aF0.0
aF0.0
aF0.0
aF0.0
aF0.0
aF0.0
aF0.0
aF0.0
aF0.0
aF0.0
aF0.0
aF0.0
aF0.0
aF0.0
aF0.0
aF0.0
aF0.0
aF0.0
aF0.0
aF0.0
aF0.0
aF0.0
aF0.0
aF0.0
aF0.0
aF0.0
aF0.0
aF0.0
aF0.0
aF0.0
aF0.0
aF0.0
aF0.0
aF0.0
aF0.0
aF0.0
aF0.0
aF0.0
aF0.0
aF0.0
aF0.0
aF0.0
aF0.0
aF0.0
aF0.0
aF0.0
aF0.0
aF0.0
aF0.0
aF0.0
aF0.0
aF0.0
aF0.0
aF0.0
aF0.0
aF0.0
aF0.0
aF0.0
aF0.0
aF0.0
aF0.0
aF0.0
aF0.0
aF0.0
aF0.0
aF0.0
aF0.0
aF0.0
aF0.0
aF0.0
aF0.0
aF0.0
aF0.0
aF0.0
aF0.0
aF0.0
aF0.0
aF0.0
aF0.0
aF0.0
aF0.0
aF0.0
aF0.0
aF0.0
aF0.0
aF0.0
aF0.0
aF0.0
aF0.0
aF0.0
aF0.0
aF0.0
aF0.0
aF0.0
aF0.0
aF0.0
aF0.0
aF0.0
aF0.0
aF0.0
aF0.0
aF0.0
aF0.0
aF0.0
aF0.0
aF0.0
aF0.0
aF0.0
aF0.0
aF0.0
aF0.0
aF0.0
aF0.0
aF0.0
aF0.0
aF0.0
aF0.0
aF0.0
aF0.0
aF0.0
aF0.0
aF0.0
aF0.0
aF0.0
aF0.0
aF0.0
aF0.0
aF0.0
aF0.0
aF0.0
aF0.0
aF0.0
aF0.0
aF0.0
aF0.0
aF0.0
aF0.0
aF0.0
aF0.0
aF0.0
aF0.0
aF0.0
aF0.0
aF0.0
aF0.0
aF0.0
aF0.0
aF0.0
aF0.0
aF0.0
aF0.0
aF0.0
aF0.0
aF0.0
aF0.0
aF0.0
aF0.0
aF0.0
aF0.0
aF0.0
aF0.0
aF0.0
aF0.0
aF0.0
aF0.0
aF0.0
aF0.0
aF0.0
aF0.0
aF0.0
aF0.0
aF0.0
aF0.0
aF0.0
aF0.0
aF0.0
aF0.0
aF0.0
aF0.0
aF0.0
aF0.0
aF0.0
aF0.0
aF0.0
aF0.0
aF0.0
aF0.0
aF0.0
aF0.0
aF0.0
aF0.0
aF0.0
aF0.0
aF0.0
aF0.0
aF0.0
aF0.0
aF0.0
aF0.0
aF0.0
aF0.0
aa(lp14
F0.0005367397486552348
aF0.002691752215521588
aF-0.0026929699594995435
aF0.0005401058835387238
aF0.004870943327956427
aF0.000542169235146666
aF-0.0
aF-0.0005444348365065189
aF0.0016375998344512837
aF-0.0005474781360535751
aF-0.003845409318379489
aF-0.013792326010102402
aF-0.03270375443622062
aF-0.06087731125447881
aF-0.079013269920346
aF-0.10027516914424606
aF-0.13006924526099273
aF-0.14877650500142484
aF0.004411011980071172
aF-0.027317541533708356
aF-0.00862465834420244
aF0.24088860987508925
aF-0.0441735396571421
aF-0.9516218600350808
aF-0.9281616388835905
aF-0.3814277485069588
aF-0.3167937926686986
aF-0.5100490887532336
aF-0.9152685482306167
aF-0.6305233618436513
aF-0.2068521225678375
aF-0.1914939584494969
aF0.5628223224695813
aF-0.15345565309882653
aF-0.34629524260601907
aF-0.8296071284308617
aF-0.30189657087485017
aF-0.8684599108645992
aF-0.46347437275817094
aF-0.7015148079840116
aF-0.7832787019303539
aF-0.853592256539648
aF-0.7668454595550261
aF-0.7391744860126294
aF-0.7684180636413431
aF-0.7355942018063034
aF-0.7964340330238046
aF-0.8380333491913783
aF-0.883339151612643
aF-0.8212270222991168
aF-0.8804006521162407
aF-0.924516361617822
aF-0.7860924738904875
aF-0.7027156460240508
aF-1.081157636025092
aF-1.1704890312201486
aF-0.8766133175109311
aF-0.8581058720023645
aF-1.03026356637955
aF-1.0571598125696107
aF-1.0492974328203837
aF-1.0202374154932523
aF-0.9957300294348151
aF-1.024749486913887
aF-0.7577915360964201
aF-1.0813054576741463
aF-1.0805480904496254
aF-1.2191599957367592
aF-1.369192571900221
aF-1.79544757724953
aF-1.5346214457113465
aF-1.9373486740965202
aF-1.8768004804773786
aF-1.9477300691142327
aF-1.9569574463325303
aF-1.868772162362482
aF-2.0745116847122023
aF-1.8474951538067645
aF-1.9945687462068908
aF-1.8951613100860594
aF-2.031015794664513
aF-1.9997257970228373
aF-2.17667299579794
aF-1.9966196192036523
aF-2.1004582347993717
aF-2.185038351892028
aF-2.196078539078304
aF-2.401070152270638
aF-2.1099835629884596
aF-2.6087744371117316
aF-2.660280622177204
aF-2.6819009043077204
aF-2.653598066816482
aF-2.583907904405873
aF-2.508364810707376
aF-2.552318230801047
aF-2.5494737881894753
aF-2.5992307028917243
aF-2.5830918358603987
aF-2.518939590675612
aF-2.4347212730175443
aF-2.3574564278560444
aF-2.423428057374491
aF-2.3032365386414377
aF-2.420867865249589
aF-2.0889103126298636
aF-2.1417515629253994
aF-2.0263823117254653
aF-2.033961978927425
aF-2.0008998097380135
aF-2.070367171987812
aF-1.9908810837507673
aF-2.254381375612508
aF-2.3988217703676606
aF-2.430059623964269
aF-2.6102143821727744
aF-2.5988192522891276
aF-2.529795356140953
aF-2.4884672555716048
aF-2.234837461012918
aF-1.931732941175896
aF-1.7896257314624577
aF-1.8215360980851294
aF-1.8333767564178693
aF-1.7715624869205189
aF-1.720912892155916
aF-1.7693130426265198
aF-1.6687340983457277
aF-1.6730988471631498
aF-1.546652713629632
aF-1.5006675557116989
aF-1.5141470322605504
aF-1.4860014283678693
aF-1.3667253470281824
aF-1.4026351494714318
aF-1.4389908811896914
aF-1.4460599702471162
aF-1.599639838214909
aF-1.7447673990049157
aF-1.8148727011295043
aF-1.914837244745837
aF-2.1418348518573254
aF-2.0923708005702615
aF-2.1220199992828452
aF-2.203188989572336
aF-2.241798485473521
aF-2.0947908761789464
aF-2.1518567072316057
aF-2.2779570367981
aF-2.2537074925810643
aF-2.203497622035085
aF-2.249701985030376
aF-2.347402547444211
aF-2.35058283213202
aF-2.4396949419297758
aF-2.4047565966249387
aF-2.462560654162777
aF-2.476852004445902
aF-2.4208554691143065
aF-2.542947958325836
aF-2.441301153703146
aF-2.4795942748059057
aF-2.442203634493667
aF-2.4247849617977573
aF-2.4710210864551967
aF-2.3724007190973455
aF-2.4922176585615747
aF-2.5000820688666927
aF-2.460461280196055
aF-2.531232926547631
aF-2.492606036094931
aF-2.587789354545249
aF-2.559177651035812
aF-2.5129591661308828
aF-2.4815752097465973
aF-2.5421602627800937
aF-2.5404999977740226
aF-2.5367865410113053
aF-2.4878767975337177
aF-2.4952113563879688
aF-2.38920464181723
aF-2.4461266386086686
aF-2.449086152112592
aF-2.4763482491167568
aF-2.431613513548053
aF-2.4248378279754337
aF-2.3788258435499388
aF-2.3347682706088695
aF-2.320912119219044
aF-2.394132788191504
aF-2.3111230152969493
aF-2.2551163903658864
aF-2.275562755932438
aF-2.1744113135805607
aF-2.1627085602958194
aF-2.1306860292731082
aF-2.1232783427159796
aF-2.097358953549091
aF-2.095392618719085
aF-2.0469608661160485
aF-1.976276366476115
aF-1.866829558263751
aF-1.848528009010485
aF-1.8267717697483
aF-1.7239059846401792
aF-1.7731691127543918
aF-1.799409466253071
aF-1.7161457996112588
aF-1.7243113323473458
aF-1.7512424536320106
aF-1.6601027265687742
aF-1.7972834596221543
aF-1.7875949979828543
aF-1.8222728202684138
aF-2.063853602963638
aF-2.037605190554743
aF-1.988856974475992
aF-1.9875028434335025
aF-1.901750275984475
aF-1.8122115404359933
aF-1.7189733301685541
aF-1.704232058247612
aF-1.7363250001127488
aF-1.6160671507951807
aF-1.6292451714665972
aF-1.6852400012878355
aF-1.9130463864367078
aF-1.964091075060474
aF-2.1018689160765702
aF-2.111351178538903
aF-2.0729944722584603
aF-2.138753445775819
aF-2.1494342078315434
aF-2.0580973732046215
aF-2.0617696547442215
aF-1.9990238892026055
aF-1.9905747089711678
aF-1.952065542536415
aF-1.9608299340058035
aF-1.9819016123133624
aF-2.006012057520814
aF-2.0801883256914118
aF-2.0349533610977666
aF-2.1375134780662233
aF-2.1351059626394653
aF-2.22927920360492
aF-2.2136012862971377
aF-2.2726898754302036
aF-2.314489948061053
aF-2.3207636373503555
aF-2.350880758138577
aF-2.3626448839775414
aF-2.3334555107818202
aF-2.3913048336627485
aF-2.471526811939374
aF-2.4793937066594127
aF-2.4371853367805847
aF-2.513098381949283
aF-2.5517665663922506
aF-2.5640071054042766
aF-2.6599258967356434
aF-2.5761715799096176
aF-2.4686501409554693
aF-2.4614735169018633
aF-2.357546009865539
aa(lp15
F-0.0007777790306136012
aF-0.0023180837742984295
aF0.007701187860220671
aF-0.0030533503741025925
aF-0.002261699642986059
aF-0.0037201596423983574
aF0.004496727138757706
aF-0.0015821412671357393
aF0.0006212739972397685
aF0.0005992811638861895
aF0.049098048359155655
aF0.1752832978963852
aF0.33140531182289124
aF0.5146139860153198
aF0.5624815821647644
aF0.6783837080001831
aF0.7817035913467407
aF0.8343368768692017
aF0.8643947243690491
aF0.9173822402954102
aF1.0205538272857666
aF1.0512666702270508
aF1.0079905986785889
aF0.9926674365997314
aF0.9255186915397644
aF0.8754894137382507
aF0.8456836938858032
aF0.8492663502693176
aF0.9256818294525146
aF0.8920407295227051
aF0.8382629752159119
aF0.8334561586380005
aF0.9135550260543823
aF1.0506287813186646
aF1.058840036392212
aF1.0155878067016602
aF0.9384549856185913
aF0.822638213634491
aF0.810056209564209
aF0.8456969261169434
aF0.9365813136100769
aF0.9380108714103699
aF0.9190407991409302
aF0.851011335849762
aF0.8280119299888611
aF0.7925230264663696
aF0.8111346364021301
aF0.8246173858642578
aF0.877701997756958
aF0.9143351316452026
aF0.9930062890052795
aF1.0655845403671265
aF1.0960299968719482
aF1.1143462657928467
aF1.1320713758468628
aF1.142647624015808
aF1.0931843519210815
aF1.102474331855774
aF1.1086370944976807
aF1.0975303649902344
aF1.1364035606384277
aF1.1202960014343262
aF1.1012115478515625
aF1.092598557472229
aF1.1789950132369995
aF1.2842175960540771
aF1.476683497428894
aF1.631937026977539
aF1.769065022468567
aF1.8521946668624878
aF2.008244276046753
aF2.0787084102630615
aF2.103834629058838
aF2.1585865020751953
aF2.1596765518188477
aF2.1661441326141357
aF2.2021291255950928
aF2.184175968170166
aF2.207744598388672
aF2.2054784297943115
aF2.2802348136901855
aF2.3545405864715576
aF2.3689281940460205
aF2.437077283859253
aF2.45186448097229
aF2.4759862422943115
aF2.5477688312530518
aF2.562448501586914
aF2.5929455757141113
aF2.6453027725219727
aF2.697749614715576
aF2.698927164077759
aF2.6860122680664062
aF2.677493095397949
aF2.6475002765655518
aF2.6398468017578125
aF2.626333236694336
aF2.6382863521575928
aF2.64194393157959
aF2.611306667327881
aF2.6076834201812744
aF2.5862884521484375
aF2.573594093322754
aF2.552004098892212
aF2.501270055770874
aF2.3972253799438477
aF2.3586933612823486
aF2.3272178173065186
aF2.314410924911499
aF2.337184429168701
aF2.4070494174957275
aF2.412358045578003
aF2.576669931411743
aF2.6275248527526855
aF2.663858652114868
aF2.706958770751953
aF2.766791343688965
aF2.702636241912842
aF2.542576789855957
aF2.2948389053344727
aF1.9256975650787354
aF1.7767258882522583
aF1.8143724203109741
aF1.797214388847351
aF1.794236660003662
aF1.7587255239486694
aF1.772117257118225
aF1.7304564714431763
aF1.6960538625717163
aF1.6273688077926636
aF1.6042231321334839
aF1.6127893924713135
aF1.6462217569351196
aF1.625210165977478
aF1.6480848789215088
aF1.6746734380722046
aF1.6841312646865845
aF1.7422089576721191
aF1.8969091176986694
aF2.016035556793213
aF2.164510726928711
aF2.243508815765381
aF2.301786422729492
aF2.298576593399048
aF2.3344810009002686
aF2.3357973098754883
aF2.360527276992798
aF2.369750738143921
aF2.4024252891540527
aF2.4115264415740967
aF2.4459445476531982
aF2.4956066608428955
aF2.5164053440093994
aF2.5306973457336426
aF2.542342185974121
aF2.536557912826538
aF2.5545506477355957
aF2.5536439418792725
aF2.544524669647217
aF2.5734426975250244
aF2.5692243576049805
aF2.566049814224243
aF2.5543551445007324
aF2.581350564956665
aF2.583233118057251
aF2.5912420749664307
aF2.628636360168457
aF2.6427338123321533
aF2.6510350704193115
aF2.6703712940216064
aF2.692239999771118
aF2.720736265182495
aF2.713552713394165
aF2.706263303756714
aF2.7052721977233887
aF2.723501682281494
aF2.7046525478363037
aF2.7204160690307617
aF2.7364203929901123
aF2.754686117172241
aF2.7382726669311523
aF2.743800401687622
aF2.7572524547576904
aF2.715327024459839
aF2.673092842102051
aF2.6565349102020264
aF2.6191396713256836
aF2.578864097595215
aF2.576417922973633
aF2.5457844734191895
aF2.520400047302246
aF2.4888477325439453
aF2.449941396713257
aF2.3507578372955322
aF2.333265542984009
aF2.3142147064208984
aF2.3154585361480713
aF2.2524306774139404
aF2.2419228553771973
aF2.1741204261779785
aF2.0648670196533203
aF1.992067575454712
aF1.9599064588546753
aF1.8939135074615479
aF1.8802456855773926
aF1.85429048538208
aF1.8577228784561157
aF1.870940089225769
aF1.8474130630493164
aF1.8533244132995605
aF1.8527175188064575
aF1.8610104322433472
aF1.8903367519378662
aF1.9657635688781738
aF2.1434874534606934
aF2.1218719482421875
aF2.0847327709198
aF2.016976833343506
aF1.9392560720443726
aF1.8903568983078003
aF1.8065217733383179
aF1.7643141746520996
aF1.7400225400924683
aF1.7039880752563477
aF1.7099515199661255
aF1.7734615802764893
aF2.035660743713379
aF2.0958728790283203
aF2.1218020915985107
aF2.1630642414093018
aF2.1794841289520264
aF2.1893107891082764
aF2.187636137008667
aF2.1288647651672363
aF2.1110692024230957
aF2.0597774982452393
aF2.035499095916748
aF2.016333818435669
aF2.0222702026367188
aF2.0156538486480713
aF2.0657567977905273
aF2.1022489070892334
aF2.124743938446045
aF2.184246778488159
aF2.196955442428589
aF2.242324113845825
aF2.2727670669555664
aF2.301693916320801
aF2.328773021697998
aF2.3568601608276367
aF2.3828446865081787
aF2.369464635848999
aF2.366882801055908
aF2.4093210697174072
aF2.4411702156066895
aF2.4457550048828125
aF2.4619710445404053
aF2.5434370040893555
aF2.5563035011291504
aF2.5736942291259766
aF2.618133068084717
aF2.5575923919677734
aF2.4697799682617188
aF2.43491268157959
aF2.393296480178833
aaa(lp16
(lp17
F-0.0589304110909206
aF-0.005593552192639841
aF0.0017620841600057785
aF-0.005062963496986087
aF0.004967924756108645
aF-0.0018451356314306666
aF-0.004145317069568379
aF0.011124317938037063
aF-0.010825527528142026
aF0.011024997587188614
aF0.007600066301763466
aF0.015258166211767283
aF0.058285744242479814
aF0.17121628878317185
aF0.24970357284355527
aF0.2812166877176264
aF0.3763897850028619
aF0.4276093252446396
aF0.4533250236296303
aF0.468352680643983
aF0.5247760049093119
aF0.38492097271986836
aF0.5445260045793932
aF0.5385249955453805
aF0.5170475554100568
aF0.392256026041534
aF0.43305975902646343
aF0.429632892651114
aF0.28267541094352977
aF-0.10844862277962256
aF0.36590560818523754
aF0.44926595176281103
aF0.4335412267297038
aF0.4244820650671739
aF0.556537255957277
aF0.19510297520085737
aF0.3387094102902849
aF0.4271557576952422
aF0.4351256684741083
aF0.19378350619010212
aF0.40407233648281443
aF0.17628623669167454
aF0.21784348160623165
aF0.32540060688188926
aF0.21963600505616113
aF0.17068921802750442
aF0.11824835958071363
aF0.07573782358429387
aF0.022574945881736537
aF-0.05533316852511573
aF-0.2287306449470684
aF-0.34510984654737725
aF-0.3285260787042127
aF-0.5038211836803499
aF-0.4970115899088086
aF-0.23215086746883246
aF0.007048132783182756
aF-0.4518329352610354
aF-0.2928369391850582
aF-0.21112008555055808
aF-0.17760455501899836
aF-0.3028580348918787
aF-0.25162868624026224
aF-0.263805101326748
aF-0.35955885435996054
aF-0.37036094042579304
aF-0.4495504213353519
aF-0.41457964065126207
aF-0.568321733320978
aF-0.6103659310861461
aF-0.4972538088413753
aF-0.6696429089436456
aF-0.5643655495601827
aF-0.5612922328301172
aF-0.5335707920389919
aF-0.5472665176027446
aF-0.536077157385497
aF-0.4790287481259063
aF-0.6289180629153683
aF-0.5581781344720713
aF-0.616683876307126
aF-0.6449403459538082
aF-0.6704963057860353
aF-0.5164964199862049
aF-0.7404768889859102
aF-0.6796254947262917
aF-0.6948154872539212
aF-0.7427417225200487
aF-0.5212322939135025
aF-0.791225948522889
aF-0.006639066553708305
aF-0.39482180243161175
aF-0.23641694467607688
aF-0.3609849279348299
aF-0.3479756581842007
aF-0.4069099138077781
aF-0.38891548568830764
aF-0.37412861340884673
aF-0.4158163353370253
aF-0.3860269890709263
aF-0.5037000609403348
aF-0.6144347705477028
aF-0.4908930998578683
aF-0.48595844164377616
aF-0.5306701865186094
aF-0.5140099755187196
aF-0.6365845423939079
aF-0.6219169599282428
aF-0.619371018069857
aF-0.6038192943652345
aF-0.6266228792814351
aF-0.7259296789714618
aF-0.7199448282957117
aF-0.6084789307448916
aF-0.556979435278524
aF-0.5393915211419779
aF-0.5370986546702006
aF-0.48469187125746765
aF-0.488137587919197
aF-0.37612204997317955
aF-0.17296887840862657
aF-0.20977577721441185
aF-0.14031920225182046
aF-0.1307726412690094
aF-0.18056487455151146
aF-0.22224011700350732
aF-0.18489960313255704
aF-0.2187389298908053
aF-0.2854234738681491
aF-0.2318871353688205
aF-0.2582335066920968
aF-0.24691602592681786
aF-0.31054507273548254
aF-0.3642132243526079
aF-0.4629155981648201
aF-0.416428642358766
aF-0.43972423990874904
aF-0.49288439976842724
aF-0.3802181346876931
aF-0.4140800898671469
aF-0.446193182618015
aF-0.5322561684192719
aF-0.36008319506064584
aF-0.4762865987007338
aF-0.44655920028632773
aF-0.4699330669017771
aF-0.336260363466454
aF-0.5569882311284119
aF-0.4893194501019798
aF-0.3930214977247224
aF-0.47489887873840536
aF-0.5738524778373045
aF-0.543134827256698
aF-0.43646054931227024
aF-0.4873307431987823
aF-0.395294464638856
aF-0.3590257276507328
aF-0.3306481636157069
aF-0.34156246171065846
aF-0.38340690939189076
aF-0.3479141614589453
aF-0.427781047990325
aF-0.33604974529763193
aF-0.33369468103014793
aF-0.4728993789322037
aF-0.40576926895292487
aF-0.48151536835722253
aF-0.4437049957296717
aF-0.45651766017854717
aF-0.4529024685732238
aF-0.4575320974431236
aF-0.4756316157027795
aF-0.38836471908960557
aF-0.48879950610009515
aF-0.44846831692554034
aF-0.5030074100677233
aF-0.5306453527348518
aF-0.5079489918478168
aF-0.4984224046878248
aF-0.6476172534515057
aF-0.583493258658414
aF-0.6751750644345164
aF-0.6212673346703509
aF-0.678110729359823
aF-0.5478308465670201
aF-0.5822079628826706
aF-0.5735560057783794
aF-0.5856456896966086
aF-0.5995091712476723
aF-0.5750816390829108
aF-0.5228261816395997
aF-0.49216492075348084
aF-0.5444136377275158
aF-0.4789320676991787
aF-0.4775766077849961
aF-0.4444746065662612
aF-0.4039128137462489
aF-0.46783836860291794
aF-0.4237510554050009
aF-0.4084101962629046
aF-0.34656876057806274
aF-0.31787945428422903
aF-0.3857723817284768
aF-0.32313511534815753
aF-0.25863573913391885
aF-0.36524234980415027
aF-0.2926492960404296
aF-0.23400134749561358
aF-0.3811069784822005
aF-0.3367654409195076
aF-0.3112538451339423
aF-0.394112183748544
aF-0.24742595092061467
aF-0.28377161986102806
aF-0.30333272357883057
aF-0.31881645351467086
aF-0.2778516165231037
aF-0.3306982172531614
aF-0.22187766429404918
aF-0.27549938541787516
aF-0.1906409516977298
aF-0.27947681569562033
aF-0.24434766319913664
aF-0.1660216899520247
aF-0.2637625903197313
aF-0.27260182790848575
aF-0.2780157731930903
aF-0.2891113618111686
aF-0.36398759331427877
aF-0.19606650557353222
aF-0.21181220427957254
aF-0.3669054238763412
aF-0.1706924479879446
aF-0.2650205714912187
aF-0.2568192923867546
aF-0.2718585697165678
aF-0.215264706370921
aF-0.16348982866666442
aF-0.2655079579066587
aF-0.19548667723442414
aF-0.2851511696526068
aF-0.1792826123966799
aF-0.1500595363186899
aF-0.24624340117851612
aF-0.18222128278982877
aF-0.1999265025083553
aF-0.20138708330031693
aF-0.21956820347202335
aF-0.17340392399459212
aF-0.11822187122967931
aF-0.14636963168433162
aF-0.08460540566574631
aF-0.06518182297437458
aF-0.145035694238685
aF-0.11592891100426927
aF-0.04161121867756232
aF-0.05628857148756778
aF-0.01669577391226574
aF-0.03623517874095652
aF-0.002123023010710306
aF0.013640247302832148
aF0.0010862607517839967
aF0.004444397052007913
aF0.016603944188139073
aF0.0012825480797370014
aF0.09021218206915582
aa(lp18
F0.0
aF0.0
aF0.0
aF0.0
aF0.0
aF0.0
aF0.0
aF0.0
aF0.0
aF0.0
aF0.0
aF0.0
aF0.0
aF0.0
aF0.0
aF0.0
aF0.0
aF0.0
aF0.0
aF0.0
aF0.0
aF0.0
aF0.0
aF0.0
aF0.0
aF0.0
aF0.0
aF0.0
aF0.0
aF0.0
aF0.0
aF0.0
aF0.0
aF0.0
aF0.0
aF0.0
aF0.0
aF0.0
aF0.0
aF0.0
aF0.0
aF0.0
aF0.0
aF0.0
aF0.0
aF0.0
aF0.0
aF0.0
aF0.0
aF0.0
aF0.0
aF0.0
aF0.0
aF0.0
aF0.0
aF0.0
aF0.0
aF0.0
aF0.0
aF0.0
aF0.0
aF0.0
aF0.0
aF0.0
aF0.0
aF0.0
aF0.0
aF0.0
aF0.0
aF0.0
aF0.0
aF0.0
aF0.0
aF0.0
aF0.0
aF0.0
aF0.0
aF0.0
aF0.0
aF0.0
aF0.0
aF0.0
aF0.0
aF0.0
aF0.0
aF0.0
aF0.0
aF0.0
aF0.0
aF0.0
aF0.0
aF0.0
aF0.0
aF0.0
aF0.0
aF0.0
aF0.0
aF0.0
aF0.0
aF0.0
aF0.0
aF0.0
aF0.0
aF0.0
aF0.0
aF0.0
aF0.0
aF0.0
aF0.0
aF0.0
aF0.0
aF0.0
aF0.0
aF0.0
aF0.0
aF0.0
aF0.0
aF0.0
aF0.0
aF0.0
aF0.0
aF0.0
aF0.0
aF0.0
aF0.0
aF0.0
aF0.0
aF0.0
aF0.0
aF0.0
aF0.0
aF0.0
aF0.0
aF0.0
aF0.0
aF0.0
aF0.0
aF0.0
aF0.0
aF0.0
aF0.0
aF0.0
aF0.0
aF0.0
aF0.0
aF0.0
aF0.0
aF0.0
aF0.0
aF0.0
aF0.0
aF0.0
aF0.0
aF0.0
aF0.0
aF0.0
aF0.0
aF0.0
aF0.0
aF0.0
aF0.0
aF0.0
aF0.0
aF0.0
aF0.0
aF0.0
aF0.0
aF0.0
aF0.0
aF0.0
aF0.0
aF0.0
aF0.0
aF0.0
aF0.0
aF0.0
aF0.0
aF0.0
aF0.0
aF0.0
aF0.0
aF0.0
aF0.0
aF0.0
aF0.0
aF0.0
aF0.0
aF0.0
aF0.0
aF0.0
aF0.0
aF0.0
aF0.0
aF0.0
aF0.0
aF0.0
aF0.0
aF0.0
aF0.0
aF0.0
aF0.0
aF0.0
aF0.0
aF0.0
aF0.0
aF0.0
aF0.0
aF0.0
aF0.0
aF0.0
aF0.0
aF0.0
aF0.0
aF0.0
aF0.0
aF0.0
aF0.0
aF0.0
aF0.0
aF0.0
aF0.0
aF0.0
aF0.0
aF0.0
aF0.0
aF0.0
aF0.0
aF0.0
aF0.0
aF0.0
aF0.0
aF0.0
aF0.0
aF0.0
aF0.0
aF0.0
aF0.0
aF0.0
aF0.0
aF0.0
aF0.0
aF0.0
aF0.0
aF0.0
aF0.0
aF0.0
aF0.0
aF0.0
aF0.0
aF0.0
aF0.0
aF0.0
aF0.0
aF0.0
aF0.0
aF0.0
aF0.0
aF0.0
aF0.0
aF0.0
aF0.0
aF0.0
aF0.0
aF0.0
aF0.0
aa(lp19
F-0.0038901356754370542
aF-0.019449565033726034
aF0.01944939693344238
aF-0.00388966928007632
aF-0.035005638600072254
aF-0.003889382682580241
aF0.0
aF0.003889018891293703
aF-0.011666455778530831
aF0.0038885916369020396
aF0.02721690495219838
aF0.09719309434290731
aF0.22935020450203328
aF0.41568819309280325
aF0.5161978644723273
aF0.6401010893859096
aF0.7625498685377478
aF0.8110955729594441
aF0.8676367399852531
aF0.937724982629541
aF1.024601966221045
aF1.024261698543601
aF1.0552687616866734
aF0.43990416383376124
aF-0.2945700644183851
aF0.8186131138551331
aF0.8290238434460918
aF0.6728272301771723
aF-0.2690439731807058
aF0.6604112498280317
aF0.8445945657559852
aF0.839025142989845
aF0.7930385593913484
aF1.0461627845341037
aF0.9908698853199874
aF0.6044994719522316
aF0.9160708866814105
aF0.18201072510849073
aF0.6877322423415875
aF0.48433946732210675
aF0.5356270778779391
aF0.4186760423912885
aF0.5984738658007215
aF0.4687469566037349
aF0.3472432640615007
aF0.28348057341367805
aF0.13644787510655246
aF0.04909715943451085
aF0.0007122673962340369
aF-0.42076033129854423
aF-0.46019341270467584
aF-0.5950055010543701
aF-0.7631848220727084
aF-0.8908825002166142
aF-0.40151745042212067
aF0.15446114740915554
aF-0.668235831899714
aF-0.7149887691340234
aF-0.3894020273326967
aF-0.36142545069920307
aF-0.4954523838830527
aF-0.5610470487938688
aF-0.49259342232907083
aF-0.45902103856085136
aF-0.9170535452618713
aF-0.6626001704397936
aF-0.959223161822649
aF-1.0634194636719467
aF-1.1418130506663466
aF-0.47575350722070925
aF-1.298991762972421
aF-0.791840128541712
aF-0.9699661779042867
aF-1.0037813539838494
aF-0.9315636396218526
aF-1.0505324329804686
aF-0.9292866114861857
aF-1.2133890992887995
aF-1.0904471704346428
aF-1.2195151797169705
aF-1.1223222208618495
aF-1.3377980213270897
aF-0.9764251403839284
aF-1.4571782323451163
aF-1.3046238487033537
aF-1.150269424340283
aF-1.4271753355196706
aF-1.016805974537237
aF-1.5717929034569917
aF-0.3101130310562561
aF-0.7228300994719987
aF-0.5661494067091818
aF-0.7323696097681082
aF-0.6738907449689451
aF-0.7676872601294726
aF-0.7716267618587522
aF-0.725529627156495
aF-0.8323229517617157
aF-0.7646781022305958
aF-0.7712379773078227
aF-1.0871045812267681
aF-1.007540604352328
aF-0.9606148920715422
aF-1.0908721673600486
aF-0.9449035383257809
aF-1.1871526884688204
aF-1.2066946985427678
aF-1.1790025579126955
aF-1.0930016727477516
aF-1.2137597245784821
aF-1.2952762822888186
aF-1.4004786202734794
aF-1.2454627570500054
aF-1.088987956309867
aF-1.07690426038257
aF-0.8849342267435968
aF-0.906008068021263
aF-0.958938035777773
aF-0.7786036433678888
aF-0.6681826733684826
aF-0.41217217490944846
aF-0.29774288274949634
aF-0.2718633469799877
aF-0.2976299844507948
aF-0.45822905159016947
aF-0.3247247530851078
aF-0.4006383309779468
aF-0.5689708775686786
aF-0.4311218604251325
aF-0.41805368050613206
aF-0.5145700655836354
aF-0.5235709264350333
aF-0.7060336719007116
aF-0.8349594271712313
aF-0.8205599767538472
aF-0.8516814753290015
aF-0.8629703352526505
aF-0.6829410406818346
aF-0.7634429595254391
aF-0.8922218467973823
aF-1.007465076402096
aF-0.5479672130087128
aF-1.0130197722661527
aF-0.8164030646427639
aF-0.9198304418123577
aF-0.6150958113135271
aF-1.1206595499775138
aF-1.0157969763137076
aF-0.7652223050259159
aF-0.9507070051831985
aF-1.006125362099717
aF-1.0195280354346994
aF-0.817610875837297
aF-0.964378997664287
aF-0.7369731460294949
aF-0.7437327718538126
aF-0.6410590481130259
aF-0.6638346470239761
aF-0.7176601564173001
aF-0.6749682529890372
aF-0.7170119097949316
aF-0.738376844007062
aF-0.6683199656753512
aF-0.8785951298956837
aF-0.7517961217973846
aF-0.9914253230538235
aF-0.8413085276553863
aF-0.8795491694530273
aF-0.9200927500007918
aF-0.8125262102813667
aF-0.8782052731894585
aF-0.8030969595959553
aF-0.9252170244710389
aF-0.8910534339298284
aF-0.9533178488682528
aF-1.0033382662030546
aF-0.9751280711870249
aF-0.9738441663508245
aF-1.1594184366863065
aF-1.1715341759244289
aF-1.3267023385592365
aF-1.209801762718335
aF-1.2988433182019858
aF-1.0995898193258256
aF-1.131670476416157
aF-1.2002184006769756
aF-1.0867313883889298
aF-1.1251042884793698
aF-1.1356304096564669
aF-0.9924256281442678
aF-0.9568102360845349
aF-0.9978211400337776
aF-0.9400035884744781
aF-0.90621070653828
aF-0.8620601750459985
aF-0.836387413377585
aF-0.9161361681968163
aF-0.8150630020836891
aF-0.741322482039947
aF-0.7367061571798892
aF-0.6273189275403581
aF-0.6454691853792932
aF-0.7180899829971368
aF-0.4955250016049412
aF-0.7224729125564204
aF-0.552374350888956
aF-0.45947622068051636
aF-0.7294133458175612
aF-0.6338825667143105
aF-0.5680099017876497
aF-0.7779637306371858
aF-0.46732581093147557
aF-0.558385221823264
aF-0.6873922215836925
aF-0.6365060321959538
aF-0.5116951552865543
aF-0.6393389186970792
aF-0.5016071694388073
aF-0.5480340363481696
aF-0.546038387412765
aF-0.5658690453137191
aF-0.44993110396275865
aF-0.36493088888538056
aF-0.5137929701980739
aF-0.5359998570140588
aF-0.5404844085483622
aF-0.6177201068564344
aF-0.6990700013321685
aF-0.35650932733303353
aF-0.34606865693724853
aF-0.6832764429816843
aF-0.4913844570236195
aF-0.3798502647036287
aF-0.5989606833790758
aF-0.5415563176885637
aF-0.43280618250326625
aF-0.3073336254468499
aF-0.5272882240371167
aF-0.4773801721337446
aF-0.3121154571972213
aF-0.43882555969348674
aF-0.2918511989609681
aF-0.4879631798199637
aF-0.42272439549711566
aF-0.39307305820596455
aF-0.37856238330922803
aF-0.3767975120771793
aF-0.3284733853318796
aF-0.28198858089333745
aF-0.26131222543138444
aF-0.23691515263666182
aF-0.13713033888279486
aF-0.16131276129688982
aF-0.22442291376960194
aF-0.07340448075182854
aF-0.08104312528312874
aF-0.0805109098868554
aF-0.14335397495950206
aF0.06227928699275166
aF0.039269057819999606
aF-0.06290925223768336
aF-0.14531900251328933
aF0.0417612085680233
aF-0.022480635382770512
aF0.10929428605486909
aa(lp20
F2.8676313992688294e-32
aF2.1983956640745024e-31
aF-2.4006614194904786e-32
aF9.30933221331451e-31
aF8.147471716170799e-31
aF4.573525023004174e-31
aF3.356882962629093e-31
aF2.2692398043136593e-22
aF4.358394149780142e-22
aF-4.319547862016673e-22
aF-4.447146428980533e-22
aF-2.549960539140694e-21
aF-3.976073431505924e-21
aF3.861981475903993e-21
aF7.042443776220914e-22
aF-2.931259774176733e-19
aF3.020061521140552e-23
aF3.676827645567982e-19
aF7.624090618676754e-19
aF-1.339475820619887e-21
aF-9.179756788996045e-19
aF8.3810199735536e-24
aF1.1904036015352455e-22
aF-1.6033652172247344e-21
aF-4.1558200209517667e-19
aF-2.2150820419242125e-22
aF4.8470714240136484e-24
aF6.106152593314275e-24
aF1.9865537077382443e-22
aF-7.962851339464237e-22
aF-2.8853548125496704e-22
aF-6.681422554823153e-21
aF8.50680135209063e-21
aF-2.1172863925728217e-20
aF-2.187006570659818e-21
aF-1.1014867975044609e-23
aF-1.2564991644489656e-21
aF9.454946627913167e-21
aF5.8581580317786274e-18
aF5.9445963378388874e-18
aF6.866957728346248e-18
aF-8.940034168689402e-22
aF-3.374414032533775e-18
aF-1.4599213585847733e-18
aF-1.5095657404204855e-18
aF-1.4155438425043393e-18
aF2.0822797697762795e-21
aF7.441683629780626e-22
aF7.758446980634328e-19
aF-2.073755149507844e-22
aF4.479040845306862e-19
aF4.814582007898052e-19
aF1.0674358531888675e-23
aF-1.7035437364295818e-21
aF1.8558186803023227e-21
aF2.0696513875413657e-18
aF-1.975663197235181e-18
aF-5.316606855853335e-21
aF3.841710487646366e-18
aF1.921296131089674e-18
aF-2.495565133981271e-22
aF1.9999560442597915e-18
aF-5.710560306362559e-23
aF2.964861389505382e-22
aF-2.0903362989162186e-21
aF1.162809559686725e-18
aF-1.0883914698195205e-23
aF-3.7597938731239543e-22
aF-8.87354468019405e-22
aF4.111481589155276e-19
aF4.394318422029767e-19
aF8.609509274901978e-23
aF9.23123947634558e-19
aF-9.440228726058633e-19
aF-1.909228599928291e-18
aF-1.859106831481559e-18
aF1.9338074446496916e-18
aF7.7686567562283835e-22
aF1.431026902581356e-21
aF1.9073781968980098e-18
aF7.402599547785888e-22
aF4.1147057323878545e-18
aF-4.181447213702002e-18
aF-4.3466653741211996e-18
aF4.2781384234548566e-18
aF-2.1131482664621603e-18
aF-1.1306149664631251e-18
aF-2.079571058086022e-24
aF-2.8276693611273033e-19
aF-1.0113555894417428e-22
aF-2.8784316258620927e-19
aF-5.960475310467762e-19
aF2.99080928195625e-19
aF4.0081135125761236e-24
aF2.9574154836396013e-19
aF-1.9963570399796069e-22
aF7.469509341371541e-23
aF-2.8947014930291864e-19
aF1.7153010455787406e-22
aF-2.2546195190610327e-18
aF6.172088112127544e-23
aF-3.521785324123402e-22
aF-2.234515928248697e-18
aF-1.214384625955166e-23
aF-1.355641991326792e-21
aF-2.0777831933482213e-18
aF-6.26729676219111e-20
aF-6.594871916989474e-20
aF-1.1987417508629049e-23
aF-9.98341341890383e-19
aF2.1048280702707957e-18
aF1.1209110142370265e-21
aF3.7138160303417976e-22
aF4.0686858027530664e-22
aF5.378045716045551e-22
aF5.346582409048481e-23
aF-2.4389381070046925e-18
aF-1.1717027852474357e-18
aF-1.1475615190700756e-18
aF-4.939180740554798e-19
aF-4.2060983850282126e-19
aF3.9160493126940834e-19
aF1.8866897231535266e-22
aF-8.109488473928996e-19
aF4.353094519109994e-22
aF-7.663145951298445e-19
aF-7.731968412238623e-19
aF-7.693943953455326e-19
aF-9.64116389626574e-23
aF-7.149405786332839e-19
aF1.086144793961451e-23
aF6.988143892650783e-23
aF-6.394187419262578e-22
aF1.2486135846226316e-22
aF1.4240291646254849e-18
aF1.4445267002045489e-18
aF1.5055420237282979e-18
aF-1.5471282188316716e-18
aF9.494111388290405e-24
aF-1.87027150823196e-23
aF-2.2243629273652653e-24
aF8.748546324991543e-23
aF9.391498886094152e-23
aF-8.373163707798504e-24
aF-1.018542023027117e-18
aF1.0319575483942318e-18
aF1.0286034344079058e-18
aF-8.858830657263251e-24
aF1.0389147577312622e-18
aF6.420319919806526e-23
aF-4.587587462154775e-24
aF1.0900547855120468e-18
aF-1.0284263501041082e-22
aF4.885761422654575e-23
aF5.517860270472528e-19
aF5.552616331860475e-19
aF-5.499925960816612e-19
aF-7.529034892013346e-23
aF3.3834916334420445e-23
aF1.1069995803601956e-18
aF1.120547144432589e-18
aF7.349878900639136e-23
aF2.4829895551923446e-23
aF5.005436796904141e-22
aF2.301436080575156e-18
aF-2.220843459903808e-18
aF-6.267467844506664e-25
aF2.391727183700412e-23
aF1.1580094305920797e-18
aF-1.1547075323819212e-18
aF-5.858404324806015e-19
aF1.4513434535263587e-23
aF-3.998255117843577e-24
aF-1.8662123455580548e-23
aF-5.6023102885932355e-24
aF2.3885734755735195e-23
aF1.1683019355565005e-18
aF-5.420513348680527e-24
aF1.1718662568159915e-18
aF-1.812223967382177e-23
aF2.7969107570821666e-23
aF-1.1887337102768665e-18
aF-1.1955496785243035e-18
aF4.930316286581458e-23
aF-1.385236002478797e-24
aF-5.722433926678197e-19
aF2.029174284725525e-23
aF-1.1273833786050336e-18
aF-1.1172094706609376e-18
aF-1.5717665022532839e-24
aF1.0831940461139554e-18
aF-1.0898724955845554e-18
aF-3.825376250464392e-24
aF3.875773339369251e-23
aF-2.1881603649306816e-23
aF-1.9893098161859277e-18
aF-2.0163925366215264e-18
aF5.594157805568229e-25
aF-2.485768730589229e-19
aF-1.181111577378211e-23
aF-2.0892399289860897e-25
aF2.056300371356817e-23
aF-4.325004047119062e-19
aF-4.087649740225799e-19
aF-8.241005538433982e-19
aF-2.0660019720958422e-22
aF-2.7464584952455964e-22
aF-6.47697149239843e-23
aF3.5803569210497414e-22
aF-6.248695972355367e-23
aF1.6279023022498982e-18
aF5.820879032969735e-23
aF-1.6417441358252074e-18
aF8.54941465994555e-19
aF-4.079169764183454e-24
aF8.663213663151976e-23
aF3.1846076113348417e-24
aF-3.7206774478321014e-24
aF-3.8554548068056544e-22
aF3.266238503933614e-23
aF-1.5330545678896944e-18
aF-2.14963612174316e-22
aF6.167861710941732e-23
aF2.4934196847545596e-22
aF2.278435019460405e-22
aF3.1053177036095555e-18
aF5.049397427688339e-22
aF-1.1781281685435376e-22
aF5.514553236310871e-22
aF-5.969382413921952e-23
aF5.1631201837648514e-23
aF-1.4045414009818181e-24
aF-3.28247736343977e-23
aF3.781965629280532e-24
aF1.8257139637430996e-18
aF1.7586463664724532e-18
aF-1.148262651978339e-22
aF1.7303164644682777e-18
aF-1.737409951811226e-18
aF1.1251455051914216e-24
aF-6.475562902366067e-23
aF-1.886700199226348e-22
aF-1.8461172007323325e-18
aF-2.8769731969861333e-23
aF-1.9073976356424048e-18
aF3.331429274943482e-22
aF1.9823449554282312e-18
aF-3.490502508501447e-23
aF2.871312583565757e-22
aF-2.0239895701623666e-18
aF4.263359187450372e-18
aF4.142371615155303e-18
aF-4.128288038045975e-18
aF1.7998655462232399e-22
aF4.2643882001323876e-18
aF-1.485525680073799e-22
aF-1.0426370704877508e-18
aF1.158319886990656e-23
aF2.7759457574243625e-19
aF-2.784524654352303e-19
aF4.591368560371537e-18
aF1.4139921518415922e-22
aF1.3182963968534595e-25
aF-2.079142044299493e-18
aF5.160948379768147e-19
aaa(lp21
(lp22
F0.0010569428167387278
aF0.0007059647930658849
aF0.0013460466935279422
aF0.00042289248625841457
aF0.0011059054426349145
aF-0.0009504513950100797
aF-0.0008065316916074487
aF9.402004691099657e-06
aF-0.0005422173631543922
aF-0.00027122611437127575
aF-0.0004659205876119852
aF0.0001429994595100208
aF0.001013024029083214
aF-0.0007507697615210953
aF-0.0038544253434524387
aF-0.004542468240525323
aF-0.0015790237943996053
aF-0.00014908637442808109
aF0.004679763240585475
aF-0.005935834207943995
aF-0.012465262774770926
aF-0.010994569692223432
aF-0.005640430169831923
aF-0.008245135795209569
aF-0.004770454470978346
aF-0.0034319781369721385
aF-0.00610246616963239
aF-0.003090156230570498
aF0.00419225969945224
aF0.0217902740438583
aF0.04912267018640486
aF0.13905043932119254
aF0.14864504191079728
aF0.17595342345284976
aF0.18052468634173532
aF0.17518758089536313
aF0.1642626697414813
aF0.16441809245825045
aF0.15591686827678716
aF0.1480249472341921
aF0.15835791788350914
aF0.17462024777853552
aF0.15504222882681476
aF0.09641349792374825
aF-0.013826615732535272
aF-0.024462025052346566
aF-0.024128138614354824
aF-0.026132722867630433
aF-0.02447164859491464
aF-0.014160478282324869
aF-0.012454943376881203
aF-0.010308951592234189
aF-0.010314056287602975
aF0.0029984297238914806
aF0.01448527371921433
aF0.03975712290202783
aF0.04664479466673673
aF0.030959166485971565
aF0.07039189332913438
aF0.07999913868303662
aF0.06454631548382513
aF0.061141336292814215
aF0.0681676553416897
aF0.04104289296211309
aF-0.0036984658482508252
aF-0.0063143030728134
aF-0.011756380148873032
aF-0.01647186002666771
aF0.0022129361892521474
aF-0.0033405351462735496
aF-0.004388827610142254
aF0.0018975706395078149
aF-0.0014087611644747855
aF0.001775386053278768
aF0.00047146637207061675
aF-0.0029005848118793874
aF-0.0017871384407932218
aF-0.007561976462571631
aF-0.016657288127732456
aF-0.011754944337800543
aF-0.009088677555594286
aF-0.005456782555600784
aF-0.031315507641917956
aF-0.05100033502203079
aF-0.05357927303901021
aF-0.04868617081378232
aF-0.03160682172607911
aF-0.022101771163094926
aF0.013232856927078242
aF0.011035651885508908
aF0.031036345159276973
aF0.03126386383615732
aF0.019683279670724845
aF0.022276138072617874
aF0.023112903167244594
aF0.012568648636789142
aF0.021149820983812212
aF0.022447397910569773
aF0.02281866704678567
aF0.019922811901249515
aF-0.020504047836230683
aF0.02218622208107655
aF0.05791141007445281
aF0.07831878888190912
aF0.015294349734619047
aF-0.025492223442341345
aF-0.017917137622184894
aF0.019648844859948996
aF0.028125598407883177
aF0.01755817315984837
aF-0.0015273100847541464
aF-0.004696956692697673
aF-0.01892737713045314
aF-0.01978897087051276
aF-0.01917427920766322
aF-0.024758973635819186
aF-0.020716477238889214
aF-0.014164064769443126
aF-0.007751066311039806
aF0.007940144944412513
aF0.008477472561044062
aF0.009053601818396822
aF0.007965604193667963
aF0.007100670642459561
aF0.00576307611272786
aF0.007360752639582814
aF0.003974826676238688
aF0.006584234989502779
aF0.0014431181607225095
aF0.0011739992119074165
aF0.007030340747664981
aF0.0013329981736254243
aF-0.0006884990661600075
aF0.002666097177217247
aF-0.012436101134356201
aF-0.01642511312515197
aF-0.018324579139651766
aF-0.019740594396399046
aF-0.011494019508072776
aF-0.007067302124817927
aF-0.0018617525725187951
aF0.002222177368103488
aF0.003682289847160159
aF0.006310041843262346
aF0.005732949360629394
aF0.005836550147346889
aF-0.0003944663867414197
aF0.005264220902187165
aF0.0009809275968414835
aF0.0025960519388802676
aF-0.007918586151927195
aF-0.01194506726300311
aF-0.004478427010118651
aF0.005812538475452734
aF0.008343607135463468
aF0.011573646633407281
aF0.010719414837832945
aF0.010844015619117848
aF0.009096141312852283
aF0.010706144289107879
aF0.0035736731627830512
aF-0.0007491980352829228
aF-0.011220018449429827
aF-0.022444132139341818
aF-0.02413933084907414
aF-0.025915309304564135
aF-0.026440889934023576
aF-0.022244700147457136
aF-0.01761258860214673
aF-0.010489961288243487
aF-0.0025395232936871047
aF-0.0022636537848527163
aF0.00193446934204464
aF0.001658895003250365
aF0.0010443640271348958
aF-0.0023820302860232544
aF-0.001294015135193777
aF0.0021888489807089934
aF-5.134414103741473e-06
aF-0.0020270866247489804
aF-0.0021222938296451563
aF-0.003927023602045832
aF-0.005956981883072232
aF-0.0030567734880809863
aF0.0023604002635236624
aF0.007978084306416689
aF0.0049345204379389355
aF0.0063896233706802925
aF0.0025185515982781115
aF0.002133605798299369
aF0.004011882226877908
aF0.006132726294633906
aF0.0029252369362429455
aF0.003996974905532587
aF-0.011266949124818652
aF-0.010180811202040799
aF-0.015151476759908147
aF-0.01266297428659227
aF0.008898151253057365
aF0.00993812735939458
aF0.029799704708803863
aF0.02231241736857607
aF0.021757021256092107
aF0.021160345554520343
aF0.020894966569418357
aF0.012387672137113295
aF-0.0021701570835043335
aF-0.005020959037692209
aF-0.012491202773744206
aF-0.018686581101271398
aF-0.016637285285641405
aF-0.018201761218602633
aF-0.011755141100201554
aF-0.013614961961857255
aF-0.011309987710295625
aF0.009095592807037162
aF0.007654005486721361
aF0.012688062237994863
aF0.005843264534942145
aF0.002971205316554684
aF-0.013773541258807915
aF-0.01574793962955369
aF-0.013189760375248138
aF-0.014269053369394923
aF-0.01735453776799746
aF-0.02496912813301559
aF-0.038125960078491485
aF-0.007242733891053441
aF-0.007945385998808598
aF-0.01325837431333841
aF-0.017054738505442833
aF-0.014920083661680593
aF-0.01452268167385049
aF-0.01692843666297046
aF-0.01512085791648117
aF-0.01633621249708168
aF-0.015487227880499896
aF-0.011411125091840554
aF-0.012687390797086405
aF-0.010192043901687736
aF-0.009062517715359979
aF-0.012613332661124781
aF-0.00822946581335743
aF-0.01041050786108508
aF-0.016613358928473713
aF-0.01581185323252057
aF-0.022422709768145137
aF-0.014908401340860751
aF-0.02422793682901855
aF-0.027397794049795043
aF-0.027548882835811053
aF-0.03299510780671993
aF-0.03646322371922556
aF-0.04378144450137125
aF-0.039211262008807965
aF-0.03643883618395708
aF-0.03303918398432737
aF0.0028181919119111116
aF0.013216745698321678
aF0.014090658968137942
aF0.008619719630038984
aF-0.044380244238372696
aF-0.07650039340701735
aF-0.04675694870635573
aF-0.027663126224603186
aF-0.008778804697984125
aa(lp23
F0.0
aF0.0
aF0.0
aF0.0
aF0.0
aF0.0
aF0.0
aF0.0
aF0.0
aF0.0
aF0.0
aF0.0
aF0.0
aF0.0
aF0.0
aF0.0
aF0.0
aF0.0
aF0.0
aF0.0
aF0.0
aF0.0
aF0.0
aF0.0
aF0.0
aF0.0
aF0.0
aF0.0
aF0.0
aF0.0
aF0.0
aF0.0
aF0.0
aF0.0
aF0.0
aF0.0
aF0.0
aF0.0
aF0.0
aF0.0
aF0.0
aF0.0
aF0.0
aF0.0
aF0.0
aF0.0
aF0.0
aF0.0
aF0.0
aF0.0
aF0.0
aF0.0
aF0.0
aF0.0
aF0.0
aF0.0
aF0.0
aF0.0
aF0.0
aF0.0
aF0.0
aF0.0
aF0.0
aF0.0
aF0.0
aF0.0
aF0.0
aF0.0
aF0.0
aF0.0
aF0.0
aF0.0
aF0.0
aF0.0
aF0.0
aF0.0
aF0.0
aF0.0
aF0.0
aF0.0
aF0.0
aF0.0
aF0.0
aF0.0
aF0.0
aF0.0
aF0.0
aF0.0
aF0.0
aF0.0
aF0.0
aF0.0
aF0.0
aF0.0
aF0.0
aF0.0
aF0.0
aF0.0
aF0.0
aF0.0
aF0.0
aF0.0
aF0.0
aF0.0
aF0.0
aF0.0
aF0.0
aF0.0
aF0.0
aF0.0
aF0.0
aF0.0
aF0.0
aF0.0
aF0.0
aF0.0
aF0.0
aF0.0
aF0.0
aF0.0
aF0.0
aF0.0
aF0.0
aF0.0
aF0.0
aF0.0
aF0.0
aF0.0
aF0.0
aF0.0
aF0.0
aF0.0
aF0.0
aF0.0
aF0.0
aF0.0
aF0.0
aF0.0
aF0.0
aF0.0
aF0.0
aF0.0
aF0.0
aF0.0
aF0.0
aF0.0
aF0.0
aF0.0
aF0.0
aF0.0
aF0.0
aF0.0
aF0.0
aF0.0
aF0.0
aF0.0
aF0.0
aF0.0
aF0.0
aF0.0
aF0.0
aF0.0
aF0.0
aF0.0
aF0.0
aF0.0
aF0.0
aF0.0
aF0.0
aF0.0
aF0.0
aF0.0
aF0.0
aF0.0
aF0.0
aF0.0
aF0.0
aF0.0
aF0.0
aF0.0
aF0.0
aF0.0
aF0.0
aF0.0
aF0.0
aF0.0
aF0.0
aF0.0
aF0.0
aF0.0
aF0.0
aF0.0
aF0.0
aF0.0
aF0.0
aF0.0
aF0.0
aF0.0
aF0.0
aF0.0
aF0.0
aF0.0
aF0.0
aF0.0
aF0.0
aF0.0
aF0.0
aF0.0
aF0.0
aF0.0
aF0.0
aF0.0
aF0.0
aF0.0
aF0.0
aF0.0
aF0.0
aF0.0
aF0.0
aF0.0
aF0.0
aF0.0
aF0.0
aF0.0
aF0.0
aF0.0
aF0.0
aF0.0
aF0.0
aF0.0
aF0.0
aF0.0
aF0.0
aF0.0
aF0.0
aF0.0
aF0.0
aF0.0
aF0.0
aF0.0
aF0.0
aF0.0
aF0.0
aF0.0
aF0.0
aF0.0
aF0.0
aF0.0
aF0.0
aF0.0
aF0.0
aF0.0
aF0.0
aF0.0
aF0.0
aF0.0
aF0.0
aF0.0
aF0.0
aF0.0
aF0.0
aF0.0
aF0.0
aF0.0
aF0.0
aa(lp24
F0.0
aF0.0
aF0.0
aF0.0
aF0.0
aF0.0
aF0.0
aF0.0
aF0.0
aF0.0
aF0.0
aF0.0
aF0.0
aF0.0
aF0.0
aF0.0
aF0.0
aF0.0
aF0.0
aF0.0
aF0.0
aF0.0
aF0.0
aF0.0
aF0.0
aF0.0
aF0.0
aF0.0
aF0.0
aF0.0
aF0.0
aF0.0
aF0.0
aF0.0
aF0.0
aF0.0
aF0.0
aF0.0
aF0.0
aF0.0
aF0.0
aF0.0
aF0.0
aF0.0
aF0.0
aF0.0
aF0.0
aF0.0
aF0.0
aF0.0
aF0.0
aF0.0
aF0.0
aF0.0
aF0.0
aF0.0
aF0.0
aF0.0
aF0.0
aF0.0
aF0.0
aF0.0
aF0.0
aF0.0
aF0.0
aF0.0
aF0.0
aF0.0
aF0.0
aF0.0
aF0.0
aF0.0
aF0.0
aF0.0
aF0.0
aF0.0
aF0.0
aF0.0
aF0.0
aF0.0
aF0.0
aF0.0
aF0.0
aF0.0
aF0.0
aF0.0
aF0.0
aF0.0
aF0.0
aF0.0
aF0.0
aF0.0
aF0.0
aF0.0
aF0.0
aF0.0
aF0.0
aF0.0
aF0.0
aF0.0
aF0.0
aF0.0
aF0.0
aF0.0
aF0.0
aF0.0
aF0.0
aF0.0
aF0.0
aF0.0
aF0.0
aF0.0
aF0.0
aF0.0
aF0.0
aF0.0
aF0.0
aF0.0
aF0.0
aF0.0
aF0.0
aF0.0
aF0.0
aF0.0
aF0.0
aF0.0
aF0.0
aF0.0
aF0.0
aF0.0
aF0.0
aF0.0
aF0.0
aF0.0
aF0.0
aF0.0
aF0.0
aF0.0
aF0.0
aF0.0
aF0.0
aF0.0
aF0.0
aF0.0
aF0.0
aF0.0
aF0.0
aF0.0
aF0.0
aF0.0
aF0.0
aF0.0
aF0.0
aF0.0
aF0.0
aF0.0
aF0.0
aF0.0
aF0.0
aF0.0
aF0.0
aF0.0
aF0.0
aF0.0
aF0.0
aF0.0
aF0.0
aF0.0
aF0.0
aF0.0
aF0.0
aF0.0
aF0.0
aF0.0
aF0.0
aF0.0
aF0.0
aF0.0
aF0.0
aF0.0
aF0.0
aF0.0
aF0.0
aF0.0
aF0.0
aF0.0
aF0.0
aF0.0
aF0.0
aF0.0
aF0.0
aF0.0
aF0.0
aF0.0
aF0.0
aF0.0
aF0.0
aF0.0
aF0.0
aF0.0
aF0.0
aF0.0
aF0.0
aF0.0
aF0.0
aF0.0
aF0.0
aF0.0
aF0.0
aF0.0
aF0.0
aF0.0
aF0.0
aF0.0
aF0.0
aF0.0
aF0.0
aF0.0
aF0.0
aF0.0
aF0.0
aF0.0
aF0.0
aF0.0
aF0.0
aF0.0
aF0.0
aF0.0
aF0.0
aF0.0
aF0.0
aF0.0
aF0.0
aF0.0
aF0.0
aF0.0
aF0.0
aF0.0
aF0.0
aF0.0
aF0.0
aF0.0
aF0.0
aF0.0
aF0.0
aF0.0
aF0.0
aF0.0
aF0.0
aF0.0
aF0.0
aF0.0
aF0.0
aF0.0
aF0.0
aF0.0
aF0.0
aF0.0
aF0.0
aF0.0
aF0.0
aF0.0
aF0.0
aF0.0
aF0.0
aa(lp25
F-7.191772510850569e-07
aF-2.0316042537160683e-06
aF7.064303190418286e-06
aF-2.7093890366813866e-06
aF-1.794626768969465e-06
aF-3.367436647749855e-06
aF4.2286210373276845e-06
aF7.803680091456044e-06
aF-2.797921069941367e-06
aF-3.1439901704288786e-06
aF-0.0005436783540062606
aF-0.0016921893693506718
aF-0.002832213183864951
aF-0.005141715984791517
aF-0.005967508070170879
aF-0.007248952519148588
aF-0.005630804225802422
aF-0.0007968090358190238
aF-0.005214253440499306
aF-0.01868489757180214
aF-0.015056583099067211
aF-0.00627250736579299
aF-0.004392564296722412
aF-0.0029720228631049395
aF-0.006394718308001757
aF-0.00454411655664444
aF-0.00714908866211772
aF0.011184241622686386
aF0.019671080633997917
aF0.04778170585632324
aF0.11293185502290726
aF0.16523998975753784
aF0.18227091431617737
aF0.19548191130161285
aF0.19393417239189148
aF0.178496852517128
aF0.1823578178882599
aF0.17015771567821503
aF0.1673111617565155
aF0.16496630012989044
aF0.1777033656835556
aF0.17969746887683868
aF0.12918558716773987
aF-0.0016247445018962026
aF-0.029938125982880592
aF-0.0251675583422184
aF-0.03223905339837074
aF-0.03282691538333893
aF-0.02071301080286503
aF-0.012808874249458313
aF-0.014958156272768974
aF-0.009265783242881298
aF-0.005533728748559952
aF0.011274559423327446
aF0.04842019081115723
aF0.06404514610767365
aF0.04462170973420143
aF0.07494842261075974
aF0.08551184833049774
aF0.07937954366207123
aF0.07301642000675201
aF0.0699595957994461
aF0.06602969765663147
aF0.0011689461534842849
aF-0.021490488201379776
aF3.063385884161107e-05
aF-0.022720197215676308
aF0.020196061581373215
aF-0.008772405795753002
aF-0.0001756981946527958
aF0.0016838874435052276
aF-0.018041901290416718
aF-0.003308894345536828
aF0.009684287942945957
aF-0.006205476354807615
aF-0.009224088862538338
aF-0.011393756605684757
aF-0.01957646757364273
aF-0.020970726385712624
aF-0.009510192088782787
aF-0.008436905220150948
aF-0.036962416023015976
aF-0.057241782546043396
aF-0.062184982001781464
aF-0.05849669873714447
aF-0.03892628848552704
aF-0.018768997862935066
aF-0.000657190743368119
aF0.0069041200913488865
aF0.03864603117108345
aF0.031074637547135353
aF0.021048521623015404
aF0.027368739247322083
aF0.03281258046627045
aF0.012157422490417957
aF0.02039274573326111
aF0.027533795684576035
aF0.025952212512493134
aF0.02191450260579586
aF-0.0024545760825276375
aF0.006653681397438049
aF0.05455995351076126
aF0.08896098285913467
aF0.03487522155046463
aF-0.02576000988483429
aF-0.036699917167425156
aF0.003121742280200124
aF0.026555905118584633
aF0.01653946191072464
aF0.0074734436348080635
aF-0.012816028669476509
aF-0.020176080986857414
aF-0.014921041205525398
aF-0.02769818902015686
aF-0.02557815983891487
aF-0.023096300661563873
aF-0.02504797838628292
aF-0.0030765405390411615
aF0.0064425282180309296
aF-0.002562406938523054
aF0.012892554514110088
aF0.011556957848370075
aF0.011961610987782478
aF0.010762416757643223
aF0.006017526611685753
aF0.0019579355139285326
aF-0.0010672283824533224
aF0.00044180164695717394
aF-0.0009854384697973728
aF0.01104226429015398
aF0.0002939355908893049
aF0.005723793525248766
aF0.004917671903967857
aF-0.019638502970337868
aF-0.02292635664343834
aF-0.02771899290382862
aF-0.025191154330968857
aF-0.01306246593594551
aF-0.009086120873689651
aF-0.005061795935034752
aF0.0076888930052518845
aF0.007254987955093384
aF0.004064746666699648
aF0.0020469320006668568
aF0.006983678322285414
aF-0.0013924200320616364
aF0.0031061989720910788
aF0.0005456152721308172
aF0.0035621216520667076
aF-0.005264593753963709
aF-0.01838839240372181
aF-0.004733417648822069
aF0.005832848604768515
aF0.011297604069113731
aF0.007843418046832085
aF0.01153517235070467
aF0.009140599519014359
aF0.01005978137254715
aF0.009550108574330807
aF0.009199918247759342
aF0.0009052347741089761
aF-0.014901951886713505
aF-0.02128342166543007
aF-0.026198305189609528
aF-0.03524675592780113
aF-0.032835204154253006
aF-0.02728120982646942
aF-0.021584825590252876
aF-0.012355842627584934
aF-0.006735005881637335
aF-0.008344750851392746
aF0.007419030647724867
aF-0.003442499553784728
aF0.003603464225307107
aF-0.002195551060140133
aF0.004926351830363274
aF0.0021949992515146732
aF-0.0009506094502285123
aF-0.0058373985812067986
aF-0.0016148157883435488
aF-0.001898858929052949
aF-0.004326171707361937
aF-0.003382730297744274
aF-0.0009211706928908825
aF0.00955688301473856
aF0.004268560092896223
aF0.003698110580444336
aF-0.0012285627890378237
aF0.003009943990036845
aF0.004275018814951181
aF0.0016688944306224585
aF0.007573658600449562
aF0.011010229587554932
aF-0.005635804962366819
aF-0.010148245841264725
aF-0.0027817003428936005
aF-0.006321175955235958
aF0.02941698394715786
aF0.02899402566254139
aF0.03320472314953804
aF0.023487865924835205
aF0.011727039702236652
aF0.010473756119608879
aF0.02038467861711979
aF0.01856914535164833
aF0.015314524061977863
aF-0.009117391891777515
aF-0.010270537808537483
aF-0.0200906153768301
aF-0.020916983485221863
aF-0.019269797950983047
aF-0.014757654629647732
aF-0.013476009480655193
aF0.0005785632529295981
aF0.0030349388252943754
aF0.005472436081618071
aF0.014720548875629902
aF-0.004072203300893307
aF0.004550192039459944
aF0.005364350974559784
aF-0.017535215243697166
aF-0.01395474374294281
aF-0.017621837556362152
aF-0.016639793291687965
aF-0.027725646272301674
aF-0.04380190372467041
aF-0.0085687804967165
aF-0.018084047362208366
aF-0.010385359637439251
aF-0.022321991622447968
aF-0.026784976944327354
aF-0.022881988435983658
aF-0.025446170940995216
aF-0.012647527270019054
aF-0.01678142324090004
aF-0.020893149077892303
aF-0.011945846490561962
aF-0.013310647569596767
aF-0.012726271525025368
aF-0.012989586219191551
aF-0.016372334212064743
aF-0.016146443784236908
aF-0.016020314767956734
aF-0.017973773181438446
aF-0.01843441277742386
aF-0.017525464296340942
aF-0.030924117192626
aF-0.020542701706290245
aF-0.019719025120139122
aF-0.03081127628684044
aF-0.032498154789209366
aF-0.030978946015238762
aF-0.043456584215164185
aF-0.04194138944149017
aF-0.03220459073781967
aF-0.047109417617321014
aF-0.011049787513911724
aF0.018454302102327347
aF0.023221898823976517
aF0.015790285542607307
aF-0.04261624813079834
aF-0.08715011924505234
aF-0.05203606188297272
aF-0.040003497153520584
aF-0.011817028746008873
aaa(lp26
(lp27
F0.0006682483991781744
aF0.0011520880329389648
aF0.0015772080464282372
aF0.001779619467524085
aF0.002227375341444264
aF0.0023688617773833438
aF0.0025819217913461557
aF0.0027761148718161016
aF0.003137970860772009
aF0.00354955409252116
aF0.004104803956180267
aF0.0046239999600423696
aF0.005084379935632034
aF0.006272692460381171
aF0.010338057887003328
aF0.01282381069062339
aF0.020935968461070834
aF0.034974982266221845
aF0.04742579891261234
aF0.05627626020133657
aF0.048295443892224094
aF0.0452171351663292
aF0.04413986307588517
aF0.042835997203022065
aF0.039968444322439844
aF0.03694639798519915
aF0.03684337448201534
aF0.038091669324797635
aF0.04285058045644458
aF0.050254368904839364
aF0.07101109939942425
aF0.13523844391547274
aF0.19914509120043453
aF0.3053628708028221
aF0.42500358029652646
aF0.505657429000115
aF0.623519459994425
aF0.737848507215718
aF0.8538598322994589
aF0.9538573132414145
aF1.1636805067333351
aF1.2760038521115276
aF1.3493862156595375
aF1.4427033460093157
aF1.4658412807677081
aF1.4590678237456742
aF1.4517426908306925
aF1.4460560817953447
aF1.442815944242324
aF1.439660443114722
aF1.4401444514441317
aF1.440105154493551
aF1.4410624517124702
aF1.44206855116989
aF1.45014179018362
aF1.4618060386759923
aF1.494925231661965
aF1.5232604860200196
aF1.563403551680411
aF1.5938547697274723
aF1.6617821566036333
aF1.7047482297716656
aF1.750002980376889
aF1.7907379521540727
aF1.7957469925342557
aF1.787918144359517
aF1.7812226306993495
aF1.7730520486168804
aF1.7696824162817235
aF1.764603444150234
aF1.7648901953309937
aF1.7680527051124193
aF1.771551609980712
aF1.7750284248289392
aF1.7779012777047767
aF1.7781365640640499
aF1.778320503479495
aF1.7760169531683785
aF1.768219048802193
aF1.7610181688527642
aF1.7502677957363089
aF1.7458509524651586
aF1.7304750175382098
aF1.7108752146755206
aF1.6758026785230102
aF1.6546927768760216
aF1.6326742656059836
aF1.6237039929325516
aF1.6254838521085173
aF1.6264190855179932
aF1.635934361512669
aF1.6532118450514142
aF1.6776930370142158
aF1.6918128936427548
aF1.705170995816337
aF1.7133307461760277
aF1.7182265740315856
aF1.7318812126837149
aF1.748640237342147
aF1.7573376802762166
aF1.7564870165354427
aF1.7531283348529423
aF1.7955628450243637
aF1.8291239696839634
aF1.8694105325061992
aF1.8654416182948936
aF1.8538317952445527
aF1.8603061476740355
aF1.8758685731147968
aF1.8966708944879591
aF1.9037535156663676
aF1.9043861893300515
aF1.904887731005391
aF1.854429233872595
aF1.8462306720098922
aF1.8343520198698795
aF1.8217429296144885
aF1.8115579554004264
aF1.8115230886753855
aF1.8150405097735547
aF1.8364842397755163
aF1.8520009199503344
aF1.8752192311438005
aF1.8879287426298519
aF1.901590169618919
aF1.9135200823683858
aF1.9227633850946524
aF1.9333815447106595
aF1.9389640929374623
aF1.944564478440606
aF1.9560284984407912
aF1.9660593700086977
aF1.974498941138087
aF1.9787220702121286
aF1.9747602153606085
aF1.9685579082784441
aF1.9605392604880114
aF1.949169679146791
aF1.9413287799221834
aF1.9395643978422272
aF1.9349034679536403
aF1.9386960616530717
aF1.9449978730936637
aF1.9518276892806314
aF1.9574710198291858
aF1.9619215925123552
aF1.9680897986625556
aF1.9675550866248794
aF1.9786820514131904
aF1.982332251642423
aF1.977851132447156
aF1.973490742257127
aF1.9732184188238668
aF1.9777677892978196
aF1.9838645900405447
aF1.9961001114300738
aF2.004199260918461
aF2.011259401761347
aF2.021450760978409
aF2.0282630423815884
aF2.0469113517182285
aF2.0484786910730737
aF2.0462613566815895
aF2.036360516945588
aF2.029662918120163
aF2.017978514523018
aF1.9989171144176807
aF1.9929838930758348
aF1.977895139251992
aF1.9710454448172579
aF1.967525021421357
aF1.9672101463477687
aF1.9712690112989881
aF1.9722340783672543
aF1.9783571945745768
aF1.9751577216779423
aF1.980994781465084
aF1.9792803549252311
aF1.9782967802492732
aF1.977455704556701
aF1.978098936822019
aF1.9726243265225527
aF1.9626137201616491
aF1.9643952300797145
aF1.9629619557636113
aF1.9642944255640653
aF1.9697615054984963
aF1.973864192118273
aF1.9796947836344851
aF1.9813492250570912
aF1.9841858360580436
aF1.9871029241229332
aF1.9943982617072242
aF1.9972329009559526
aF1.9968461289272876
aF1.9952585017379403
aF1.9897129103367708
aF1.9831325081109354
aF1.9892951241588013
aF2.000509426241352
aF2.0369374799925684
aF2.057034633510359
aF2.0758898447718566
aF2.090295448773301
aF2.0979181497059987
aF2.1052670913750466
aF2.112998617448175
aF2.1108879200758586
aF2.1075379591116437
aF2.1014705717073685
aF2.0948012527226108
aF2.0845738301704237
aF2.079790603425947
aF2.075318014872693
aF2.068487685079729
aF2.0790807663250392
aF2.080682639877029
aF2.0871416717166973
aF2.0962422781899317
aF2.0991534233277465
aF2.102445142820685
aF2.0959296609018176
aF2.0925876932740666
aF2.0871790840891067
aF2.079575675751673
aF2.071257240584732
aF1.997571923063476
aF1.9552941826460848
aF1.9515183820555153
aF1.948237844370639
aF1.947116187984488
aF1.9421380121026417
aF1.9374739992863195
aF1.9270344437725702
aF1.9233172744445832
aF1.9181288654001796
aF1.9103352457987728
aF1.907363304495557
aF1.9018245723719671
aF1.8978861217568106
aF1.8860969573471693
aF1.8811149780428142
aF1.8756530580165056
aF1.8725547916908785
aF1.8690041766978485
aF1.8600757556089889
aF1.853242663274371
aF1.8417676186776317
aF1.8334886549989091
aF1.820367433249648
aF1.8109140653960814
aF1.799084093666302
aF1.781990144665517
aF1.7680438190030134
aF1.7518123804740922
aF1.7340860337393746
aF1.7098664973912017
aF1.7032532496286303
aF1.7104412434286176
aF1.7194783524720962
aF1.7452717157695825
aF1.731702263557627
aF1.6668936116423738
aF1.6478871540426525
aF1.63462814567626
aF1.6325712545962179
aa(lp28
F0.0
aF0.0
aF0.0
aF0.0
aF0.0
aF0.0
aF0.0
aF0.0
aF0.0
aF0.0
aF0.0
aF0.0
aF0.0
aF0.0
aF0.0
aF0.0
aF0.0
aF0.0
aF0.0
aF0.0
aF0.0
aF0.0
aF0.0
aF0.0
aF0.0
aF0.0
aF0.0
aF0.0
aF0.0
aF0.0
aF0.0
aF0.0
aF0.0
aF0.0
aF0.0
aF0.0
aF0.0
aF0.0
aF0.0
aF0.0
aF0.0
aF0.0
aF0.0
aF0.0
aF0.0
aF0.0
aF0.0
aF0.0
aF0.0
aF0.0
aF0.0
aF0.0
aF0.0
aF0.0
aF0.0
aF0.0
aF0.0
aF0.0
aF0.0
aF0.0
aF0.0
aF0.0
aF0.0
aF0.0
aF0.0
aF0.0
aF0.0
aF0.0
aF0.0
aF0.0
aF0.0
aF0.0
aF0.0
aF0.0
aF0.0
aF0.0
aF0.0
aF0.0
aF0.0
aF0.0
aF0.0
aF0.0
aF0.0
aF0.0
aF0.0
aF0.0
aF0.0
aF0.0
aF0.0
aF0.0
aF0.0
aF0.0
aF0.0
aF0.0
aF0.0
aF0.0
aF0.0
aF0.0
aF0.0
aF0.0
aF0.0
aF0.0
aF0.0
aF0.0
aF0.0
aF0.0
aF0.0
aF0.0
aF0.0
aF0.0
aF0.0
aF0.0
aF0.0
aF0.0
aF0.0
aF0.0
aF0.0
aF0.0
aF0.0
aF0.0
aF0.0
aF0.0
aF0.0
aF0.0
aF0.0
aF0.0
aF0.0
aF0.0
aF0.0
aF0.0
aF0.0
aF0.0
aF0.0
aF0.0
aF0.0
aF0.0
aF0.0
aF0.0
aF0.0
aF0.0
aF0.0
aF0.0
aF0.0
aF0.0
aF0.0
aF0.0
aF0.0
aF0.0
aF0.0
aF0.0
aF0.0
aF0.0
aF0.0
aF0.0
aF0.0
aF0.0
aF0.0
aF0.0
aF0.0
aF0.0
aF0.0
aF0.0
aF0.0
aF0.0
aF0.0
aF0.0
aF0.0
aF0.0
aF0.0
aF0.0
aF0.0
aF0.0
aF0.0
aF0.0
aF0.0
aF0.0
aF0.0
aF0.0
aF0.0
aF0.0
aF0.0
aF0.0
aF0.0
aF0.0
aF0.0
aF0.0
aF0.0
aF0.0
aF0.0
aF0.0
aF0.0
aF0.0
aF0.0
aF0.0
aF0.0
aF0.0
aF0.0
aF0.0
aF0.0
aF0.0
aF0.0
aF0.0
aF0.0
aF0.0
aF0.0
aF0.0
aF0.0
aF0.0
aF0.0
aF0.0
aF0.0
aF0.0
aF0.0
aF0.0
aF0.0
aF0.0
aF0.0
aF0.0
aF0.0
aF0.0
aF0.0
aF0.0
aF0.0
aF0.0
aF0.0
aF0.0
aF0.0
aF0.0
aF0.0
aF0.0
aF0.0
aF0.0
aF0.0
aF0.0
aF0.0
aF0.0
aF0.0
aF0.0
aF0.0
aF0.0
aF0.0
aF0.0
aF0.0
aF0.0
aF0.0
aF0.0
aF0.0
aF0.0
aF0.0
aF0.0
aF0.0
aF0.0
aF0.0
aF0.0
aF0.0
aF0.0
aF0.0
aF0.0
aF0.0
aF0.0
aF0.0
aF0.0
aF0.0
aF0.0
aF0.0
aa(lp29
F1.707905211361569
aF1.7083192723116358
aF1.70838187964428
aF1.7087705797194348
aF1.7090559527604348
aF1.709301052430388
aF1.7096636553161746
aF1.709885255264837
aF1.7102534087004608
aF1.7106678347937825
aF1.7111548254860343
aF1.711761568839059
aF1.712434600397931
aF1.7162120676777401
aF1.7226852062045455
aF1.7261885950104505
aF1.7397418412358543
aF1.7522063356328044
aF1.5657124319176914
aF1.5999198099378633
aF1.5792136975747342
aF1.339811255264033
aF1.6126318924774443
aF2.7085837679274265
aF-2.8342778134351896
aF2.006829770977277
aF1.9358021106319865
aF2.2194412703226862
aF-2.8556947303604163
aF2.333046493965019
aF1.8109814503156327
aF1.7951866766501194
aF0.9535875223626983
aF1.716441966863186
aF1.9070132471772034
aF2.511891234995647
aF1.8891433526010222
aF2.9350039702893365
aF2.1638015327052664
aF2.5373255706377593
aF2.5418037598668084
aF2.6855842360700475
aF2.4788952893850125
aF2.576441128928467
aF2.7171650607777975
aF2.773756127622746
aF2.9719164421367354
aF3.0830733808320847
aF3.1407863186270926
aF-2.668109427828598
aF-2.6599432665861
aF-2.569739837882967
aF-2.3709794371412953
aF-2.2386619638045855
aF-2.7860017876950005
aF3.010387840739125
aF-2.4902705978024304
aF-2.4469227833995513
aF-2.7802263777869554
aF-2.812166826887295
aF-2.7004514986699335
aF-2.6388123030560844
aF-2.6821893660366354
aF-2.7204574094004674
aF-2.2613889639180664
aF-2.591830523261494
aF-2.4156041694451362
aF-2.4243189662714966
aF-2.446501363432447
aF-2.882567792362132
aF-2.4391588180285866
aF-2.7535886247602237
aF-2.664580543826798
aF-2.6657330185912604
aF-2.6973071036428267
aF-2.6294682293482783
aF-2.7204411619397355
aF-2.5604692483320766
aF-2.6412802173545082
aF-2.5698083151903655
aF-2.6367619258601365
aF-2.5519828083042597
aF-2.7199151917718436
aF-2.51113059835219
aF-2.5857927044449696
aF-2.657025405722242
aF-2.5653056972777164
aF-2.7410098862197008
aF-2.5013433811056545
aF-3.0232748059990424
aF-2.876285856513117
aF-2.9335471089538094
aF-2.872305202432699
aF-2.886472656081426
aF-2.8445938784975695
aF-2.848005221024873
aF-2.8643418511287493
aF-2.8316911007338
aF-2.853780097478102
aF-2.844479795375619
aF-2.7216526144203534
aF-2.737703952082697
aF-2.764204979875689
aF-2.6992661666947457
aF-2.769462299868264
aF-2.624799148258153
aF-2.6285084823972715
aF-2.6146433484046616
aF-2.648493466537171
aF-2.5963292612646875
aF-2.58254304725603
aF-2.528557247821612
aF-2.63686027463125
aF-2.7154439661049627
aF-2.7244417435492108
aF-2.8147262121836047
aF-2.806145119565903
aF-2.7792694311370516
aF-2.8383572351525546
aF-2.851067395878025
aF-2.9313758298007433
aF-2.976731089188786
aF-2.9934367746242647
aF-2.9806568483063365
aF-2.888481902484138
aF-2.9550921689107392
aF-2.918910664018801
aF-2.8129942513492296
aF-2.8894001800189097
aF-2.8776051696458467
aF-2.8112622206301556
aF-2.808676828323535
aF-2.698043846818442
aF-2.593182633799663
aF-2.6122658028766654
aF-2.6071797758425976
aF-2.6035489237275877
aF-2.738084817193693
aF-2.729130632322616
aF-2.6846740955928965
aF-2.6572554150386463
aF-2.891125036577462
aF-2.6907058565636848
aF-2.774319671841973
aF-2.7460920564227562
aF-2.8738066173583086
aF-2.6503585295040337
aF-2.7005490556106877
aF-2.8175115782679865
aF-2.7424004525020016
aF-2.7132606043443803
aF-2.716094402931923
aF-2.8064290977154287
aF-2.7522623411234415
aF-2.8482324156752803
aF-2.8416479192110913
aF-2.8869228807725285
aF-2.8797314316640983
aF-2.8533968428873213
aF-2.882147541013162
aF-2.8559249861842426
aF-2.852172590777677
aF-2.87447779172243
aF-2.7939676196581167
aF-2.8462458128128683
aF-2.74575144305485
aF-2.816030135070891
aF-2.8033079469708673
aF-2.7837416885295347
aF-2.8309827028779537
aF-2.802848834898573
aF-2.840675972763455
aF-2.794684126378037
aF-2.80084053728544
aF-2.774817015304533
aF-2.765681406108252
aF-2.7751004451155468
aF-2.77505184899582
aF-2.7054906728865613
aF-2.7026307250613817
aF-2.6346968109240803
aF-2.6822916042263856
aF-2.6539702765845465
aF-2.7237087569943896
aF-2.706006973642695
aF-2.6819783208876893
aF-2.7130691295340403
aF-2.69253675003316
aF-2.686538807868664
aF-2.7486285801735413
aF-2.749073911966548
aF-2.7250183720548664
aF-2.749856212971068
aF-2.7467208157795557
aF-2.762291942784971
aF-2.7675305869692814
aF-2.734252557199333
aF-2.7709401852590143
aF-2.8015481856205495
aF-2.7961234655234604
aF-2.8342275397268537
aF-2.808702875777205
aF-2.771068892694273
aF-2.8767094096328676
aF-2.744737890592268
aF-2.8396025374100957
aF-2.891586627448388
aF-2.7396966471817175
aF-2.789312244208379
aF-2.827951656727844
aF-2.703359523804183
aF-2.8872078597709017
aF-2.8388291940182384
aF-2.7808797613524345
aF-2.8424413552736585
aF-2.895554731126394
aF-2.8305654521822547
aF-2.8943746794255913
aF-2.8610208597264464
aF-2.8489339884503257
aF-2.8235756100422105
aF-2.883473945061767
aF-2.9344335286171517
aF-2.8337703886469683
aF-2.823759232000297
aF-2.8312398267914753
aF-2.8292625207933466
aF-2.799648819922619
aF-2.973576321885226
aF-2.9791286758213316
aF-2.823198254540579
aF-2.9157591186473804
aF-2.966677569955127
aF-2.8583887093697236
aF-2.884729244003963
aF-2.928374843037655
aF-2.9884077809791103
aF-2.8777707523402882
aF-2.9027803701790407
aF-2.9853926981883863
aF-2.926229995716375
aF-3.0022021249530275
aF-2.906245448926829
aF-2.946347484046036
aF-2.959531221213428
aF-2.973383467404812
aF-2.9729894294930093
aF-2.9980559302037264
aF-3.0203540223509653
aF-3.02946739299382
aF-3.04115456717459
aF-3.083616669189491
aF-3.072572043232597
aF-3.0480171777320266
aF-3.111901327315426
aF-3.108917616584751
aF-3.108570280837386
aF-3.0846116799566476
aF3.117191156104518
aF3.126278348183998
aF-3.117946308160044
aF-3.0852434709603
aF3.124677650151018
aF-3.132459908422901
aF3.0952664786636657
aa(lp30
F1.6916137945175347
aF1.6916661657549357
aF1.691695425432716
aF1.6917503132198617
aF1.6918119376168574
aF1.6918685394823794
aF1.6919412859847909
aF1.6920055214068437
aF1.6920818184651272
aF1.6921281774982293
aF1.6921224962124195
aF1.6916997660744222
aF1.6910278191378807
aF1.690478987788213
aF1.694273808838838
aF1.7037021193295463
aF1.7151024587938897
aF1.7305856124792909
aF1.7419908682162575
aF1.7458450878731828
aF1.7403959714278237
aF1.7393643066656417
aF1.739496516700592
aF1.7392850570676017
aF1.7378208912266508
aF1.737587062512578
aF1.7381471179410999
aF1.7413215732055998
aF1.7505769718205775
aF1.7670389397338155
aF1.8070867470158254
aF1.8964606806264286
aF1.979137405436679
aF2.0948755655066784
aF2.20648651808997
aF2.3054578144658486
aF2.3904312634102958
aF2.518983052890309
aF2.6198191102029873
aF2.7263254482509
aF2.934578522920902
aF3.0447201028281468
aF3.1212513508028787
aF-3.117958241857851
aF-3.1224740372509276
aF-3.1316005026665983
aF-3.1398314748502956
aF3.139006522330431
aF3.135526698930796
aF3.1362464333706126
aF3.138116808046897
aF3.1393690633908595
aF3.1402186712019136
aF-3.1332519092386377
aF-3.119626012802533
aF-3.0951403599472065
aF-3.059032193961581
aF-3.02047601089649
aF-2.985302778303704
aF-2.957946818097547
aF-2.8793143120278235
aF-2.839773184393913
aF-2.7958509498968045
aF-2.7819891929138794
aF-2.7882165563764456
aF-2.7926659629076673
aF-2.799723477760467
aF-2.803860326557814
aF-2.8055044040970585
aF-2.8056257135782587
aF-2.8036867772627936
aF-2.7990018003488166
aF-2.796463980054235
aF-2.791961897380111
aF-2.7894782495612067
aF-2.7892256990527313
aF-2.7893690838418346
aF-2.7939548821805222
aF-2.7992384572181903
aF-2.8078547625724664
aF-2.816042191062596
aF-2.8238906135614763
aF-2.8467940458035392
aF-2.875580822250136
aF-2.9016539419702894
aF-2.9199166124242404
aF-2.936091736883202
aF-2.9394816901775966
aF-2.929052807798006
aF-2.911086123239899
aF-2.887928305465142
aF-2.863961647230727
aF-2.845832702276268
aF-2.82863980762677
aF-2.818135720764601
aF-2.8123874981545556
aF-2.7999880640445634
aF-2.7887172773236797
aF-2.7726175552696155
aF-2.762313077681239
aF-2.776353204922933
aF-2.7489634277364177
aF-2.709249708632131
aF-2.677706036251678
aF-2.666144978447052
aF-2.6819514682924384
aF-2.6837550560454098
aF-2.6665889700409853
aF-2.6502043080102076
aF-2.6427543991511553
aF-2.6390084424542652
aF-2.643010997549498
aF-2.6805961441229544
aF-2.689094547000934
aF-2.698310518879741
aF-2.7089863511993495
aF-2.717439021501593
aF-2.7228749921966315
aF-2.7211180965302018
aF-2.7127720261521913
aF-2.6982749326901314
aF-2.684758409362266
aF-2.673230590640213
aF-2.662962444512806
aF-2.6507243671777023
aF-2.6431960927052454
aF-2.633912757989143
aF-2.6253757473459682
aF-2.621019062493366
aF-2.614469822458968
aF-2.6057505868108835
aF-2.5972248588026545
aF-2.5906459856305935
aF-2.5921134332917104
aF-2.5987461040060196
aF-2.60439042584407
aF-2.6139917107715522
aF-2.6219159720384866
aF-2.626987339396424
aF-2.6273055401924106
aF-2.6232723811310237
aF-2.6162016360687566
aF-2.6104698442273286
aF-2.602414796012359
aF-2.5961263436755155
aF-2.5910032619092638
aF-2.585785267887936
aF-2.5799174558390177
aF-2.575846721282844
aF-2.5737930223256953
aF-2.5768848442368095
aF-2.5794540492877185
aF-2.575044815723446
aF-2.5662638791222148
aF-2.559072945636263
aF-2.550541183701955
aF-2.538627959512557
aF-2.5299186923671737
aF-2.5187616096663357
aF-2.510197312285721
aF-2.4964344759967685
aF-2.4957926199035256
aF-2.503376083516333
aF-2.5117894487677628
aF-2.5220502953006836
aF-2.535929194864579
aF-2.5516232003405226
aF-2.55941107974744
aF-2.565819111578258
aF-2.570422288193866
aF-2.570662961607087
aF-2.569371059635403
aF-2.566931030329907
aF-2.5650453236953608
aF-2.563984245718183
aF-2.5635979620188265
aF-2.5632300835774258
aF-2.5628532057619737
aF-2.5640830487396213
aF-2.5647834163864482
aF-2.5653979692194864
aF-2.57566891552528
aF-2.57719256702259
aF-2.5775248941905136
aF-2.5752900942014154
aF-2.572200604109985
aF-2.5689467376271318
aF-2.565999242259284
aF-2.5636836090336446
aF-2.561557147484265
aF-2.559416405118333
aF-2.5553523132095437
aF-2.5513761117668885
aF-2.5516573005583725
aF-2.557255294472236
aF-2.5603858014551695
aF-2.5651681912642363
aF-2.56327096060096
aF-2.557006261912768
aF-2.5416471508516434
aF-2.5013961250471017
aF-2.488334999487926
aF-2.476754913118898
aF-2.4662441442127427
aF-2.4560584451108833
aF-2.451785535368749
aF-2.4516023804544074
aF-2.454681370608538
aF-2.4613908780470655
aF-2.467172487750337
aF-2.476906145917371
aF-2.4822213692613486
aF-2.4859256014299174
aF-2.490429578553708
aF-2.4821617150599256
aF-2.4766376459073935
aF-2.4713954843503574
aF-2.466353758465466
aF-2.4600339446145685
aF-2.4552501704203045
aF-2.4631752693251348
aF-2.468574222753625
aF-2.4752699608988533
aF-2.4833194837025943
aF-2.4893385968760913
aF-2.5626205923173995
aF-2.607547699794686
aF-2.6111819367804303
aF-2.613339023143018
aF-2.6159580678285588
aF-2.620755377855356
aF-2.626731251932914
aF-2.6332237753743875
aF-2.638701529582228
aF-2.6428824917808442
aF-2.6478076866539144
aF-2.6534831254146325
aF-2.657392106194738
aF-2.661528727088973
aF-2.665646473766534
aF-2.676804096569315
aF-2.6806363028508073
aF-2.685337115565256
aF-2.6892658926945425
aF-2.696662046553243
aF-2.701695114558695
aF-2.713262455786661
aF-2.7215688933403377
aF-2.730071543859169
aF-2.7405498187931268
aF-2.753623184859626
aF-2.7657879521486803
aF-2.777935247624214
aF-2.7987489417137157
aF-2.8145231485568574
aF-2.831772791171153
aF-2.8468553486641226
aF-2.8384644428514654
aF-2.8304328483411507
aF-2.822724944804724
aF-2.8089074312394047
aF-2.8555171473543077
aF-2.893056316242896
aF-2.9096946310118916
aF-2.919433361960478
aaa.